                              1 ;--------------------------------------------------------
                              2 ; File Created by SDCC : FreeWare ANSI-C Compiler
                              3 ; Version 2.2.1 Fri Apr 16 00:21:57 2021
                              4 
                              5 ;--------------------------------------------------------
                              6 	.module lcc16880
                              7 	
                              8 ;--------------------------------------------------------
                              9 ; Public variables in this module
                             10 ;--------------------------------------------------------
                             11 	.globl _main
                             12 	.globl _performantdelay
                             13 	.globl _vblint
                             14 	.globl _load_game_tiles
                             15 	.globl _do_gameplay
                             16 	.globl _update_graphics
                             17 	.globl _printf
                             18 	.globl _move_sprite
                             19 	.globl _set_sprite_tile
                             20 	.globl _set_sprite_data
                             21 	.globl _set_bkg_tiles
                             22 	.globl _set_bkg_data
                             23 	.globl _display_off
                             24 	.globl _wait_vbl_done
                             25 	.globl _reset
                             26 	.globl _joypad
                             27 	.globl _delay
                             28 	.globl _add_VBL
                             29 	.globl _q
                             30 	.globl _badguy_i
                             31 	.globl _badguy_z
                             32 	.globl _player_o
                             33 	.globl _player_z
                             34 	.globl _player_y
                             35 	.globl _player_x
                             36 	.globl _count
                             37 	.globl _debug
                             38 	.globl _joypad_state
                             39 	.globl _playing
                             40 	.globl _badguy2_ai
                             41 	.globl _badguy1_ai
                             42 	.globl _map1
                             43 	.globl _load_game_tiles
                             44 	.globl _do_gameplay
                             45 	.globl _collision_detection
                             46 	.globl _update_badguy
                             47 	.globl _update_joypad
                             48 	.globl _update_graphics
                             49 	.globl _vblint
                             50 	.globl _main
                             51 	.globl _performantdelay
                             52 	.globl _blankmap
                             53 	.globl _bubbles
                             54 	.globl _key
                             55 	.globl _doggo
                             56 	.globl _boy4
                             57 	.globl _boy3
                             58 	.globl _boy2
                             59 	.globl _boy1
                             60 	.globl _Ghost
                             61 	.globl _playermove
                             62 ;--------------------------------------------------------
                             63 ; Externals used
                             64 ;--------------------------------------------------------
                             65 	.globl __io_out
                             66 	.globl __io_in
                             67 	.globl __io_status
                             68 	.globl _sys_time
                             69 	.globl __cpu
                             70 ;--------------------------------------------------------
                             71 ; special function registers
                             72 ;--------------------------------------------------------
                             73 ;--------------------------------------------------------
                             74 ; special function bits 
                             75 ;--------------------------------------------------------
                             76 ;--------------------------------------------------------
                             77 ; internal ram data
                             78 ;--------------------------------------------------------
                             79 	.area _DATA
   0000                      80 _map1::
   0000                      81 	.ds 360
   0168                      82 _badguy1_ai::
   0168                      83 	.ds 360
   02D0                      84 _badguy2_ai::
   02D0                      85 	.ds 180
   0384                      86 _playing::
   0384                      87 	.ds 1
   0385                      88 _joypad_state::
   0385                      89 	.ds 1
   0386                      90 _debug::
   0386                      91 	.ds 1
   0387                      92 _count::
   0387                      93 	.ds 1
   0388                      94 _player_x::
   0388                      95 	.ds 2
   038A                      96 _player_y::
   038A                      97 	.ds 2
   038C                      98 _player_z::
   038C                      99 	.ds 2
   038E                     100 _player_o::
   038E                     101 	.ds 2
   0390                     102 _badguy_x::
   0390                     103 	.ds 1
   0391                     104 _badguy_y::
   0391                     105 	.ds 1
   0392                     106 _badguy_z::
   0392                     107 	.ds 1
   0393                     108 _badguy_b::
   0393                     109 	.ds 1
   0394                     110 _badguy_i::
   0394                     111 	.ds 6
   039A                     112 _doggo_x::
   039A                     113 	.ds 1
   039B                     114 _doggo_y::
   039B                     115 	.ds 1
   039C                     116 _q::
   039C                     117 	.ds 1
   039D                     118 _seed::
   039D                     119 	.ds 2
                            120 ;--------------------------------------------------------
                            121 ; overlayable items in internal ram 
                            122 ;--------------------------------------------------------
                            123 	.area _OVERLAY
                            124 ;--------------------------------------------------------
                            125 ; indirectly addressable internal ram data
                            126 ;--------------------------------------------------------
                            127 	.area _ISEG
                            128 ;--------------------------------------------------------
                            129 ; bit data
                            130 ;--------------------------------------------------------
                            131 	.area _BSEG
                            132 ;--------------------------------------------------------
                            133 ; external ram data
                            134 ;--------------------------------------------------------
                            135 	.area _XSEG
                            136 ;--------------------------------------------------------
                            137 ; global & static initialisations
                            138 ;--------------------------------------------------------
                            139 	.area _GSINIT
                            140 	.area _GSFINAL
                            141 	.area _GSINIT
                            142 ;	main.c 392
                            143 ; genAssign (pointer)
   0000 11 00 00            144 	ld	de,#_map1 + 0
   0003 3E 0A               145 	ld	a,#0x0A
   0005 12                  146 	ld	(de),a
                            147 ; genPlus
                            148 ; genPlusIncr
   0006 11 01 00            149 	ld	de,#_map1 + 0 + 1
                            150 ; genAssign (pointer)
   0009 3E 0A               151 	ld	a,#0x0A
   000B 12                  152 	ld	(de),a
                            153 ; genPlus
                            154 ; genPlusIncr
   000C 11 02 00            155 	ld	de,#_map1 + 0 + 2
                            156 ; genAssign (pointer)
   000F 3E 0A               157 	ld	a,#0x0A
   0011 12                  158 	ld	(de),a
                            159 ; genPlus
                            160 ; genPlusIncr
   0012 11 03 00            161 	ld	de,#_map1 + 0 + 3
                            162 ; genAssign (pointer)
   0015 3E 0A               163 	ld	a,#0x0A
   0017 12                  164 	ld	(de),a
                            165 ; genPlus
                            166 ; genPlusIncr
   0018 11 04 00            167 	ld	de,#_map1 + 0 + 4
                            168 ; genAssign (pointer)
   001B 3E 0A               169 	ld	a,#0x0A
   001D 12                  170 	ld	(de),a
                            171 ; genPlus
                            172 ; genPlusIncr
   001E 11 05 00            173 	ld	de,#_map1 + 0 + 5
                            174 ; genAssign (pointer)
   0021 3E 0A               175 	ld	a,#0x0A
   0023 12                  176 	ld	(de),a
                            177 ; genPlus
                            178 ; genPlusIncr
   0024 11 06 00            179 	ld	de,#_map1 + 0 + 6
                            180 ; genAssign (pointer)
   0027 3E 0A               181 	ld	a,#0x0A
   0029 12                  182 	ld	(de),a
                            183 ; genPlus
                            184 ; genPlusIncr
   002A 11 07 00            185 	ld	de,#_map1 + 0 + 7
                            186 ; genAssign (pointer)
   002D 3E 0A               187 	ld	a,#0x0A
   002F 12                  188 	ld	(de),a
                            189 ; genPlus
                            190 ; genPlusIncr
   0030 11 08 00            191 	ld	de,#_map1 + 0 + 8
                            192 ; genAssign (pointer)
   0033 3E 0F               193 	ld	a,#0x0F
   0035 12                  194 	ld	(de),a
                            195 ; genPlus
                            196 ; genPlusIncr
   0036 11 09 00            197 	ld	de,#_map1 + 0 + 9
                            198 ; genAssign (pointer)
   0039 3E 0A               199 	ld	a,#0x0A
   003B 12                  200 	ld	(de),a
                            201 ; genPlus
                            202 ; genPlusIncr
   003C 11 0A 00            203 	ld	de,#_map1 + 0 + 10
                            204 ; genAssign (pointer)
   003F 3E 0A               205 	ld	a,#0x0A
   0041 12                  206 	ld	(de),a
                            207 ; genPlus
                            208 ; genPlusIncr
   0042 11 0B 00            209 	ld	de,#_map1 + 0 + 11
                            210 ; genAssign (pointer)
   0045 3E 0A               211 	ld	a,#0x0A
   0047 12                  212 	ld	(de),a
                            213 ; genPlus
                            214 ; genPlusIncr
   0048 11 0C 00            215 	ld	de,#_map1 + 0 + 12
                            216 ; genAssign (pointer)
   004B 3E 0A               217 	ld	a,#0x0A
   004D 12                  218 	ld	(de),a
                            219 ; genPlus
                            220 ; genPlusIncr
   004E 11 0D 00            221 	ld	de,#_map1 + 0 + 13
                            222 ; genAssign (pointer)
   0051 3E 0A               223 	ld	a,#0x0A
   0053 12                  224 	ld	(de),a
                            225 ; genPlus
                            226 ; genPlusIncr
   0054 11 0E 00            227 	ld	de,#_map1 + 0 + 14
                            228 ; genAssign (pointer)
   0057 3E 0A               229 	ld	a,#0x0A
   0059 12                  230 	ld	(de),a
                            231 ; genPlus
                            232 ; genPlusIncr
   005A 11 0F 00            233 	ld	de,#_map1 + 0 + 15
                            234 ; genAssign (pointer)
   005D 3E 0A               235 	ld	a,#0x0A
   005F 12                  236 	ld	(de),a
                            237 ; genPlus
                            238 ; genPlusIncr
   0060 11 10 00            239 	ld	de,#_map1 + 0 + 16
                            240 ; genAssign (pointer)
   0063 3E 0A               241 	ld	a,#0x0A
   0065 12                  242 	ld	(de),a
                            243 ; genPlus
                            244 ; genPlusIncr
   0066 11 11 00            245 	ld	de,#_map1 + 0 + 17
                            246 ; genAssign (pointer)
   0069 3E 0A               247 	ld	a,#0x0A
   006B 12                  248 	ld	(de),a
                            249 ; genPlus
                            250 ; genPlusIncr
   006C 11 12 00            251 	ld	de,#_map1 + 0 + 18
                            252 ; genAssign (pointer)
   006F 3E 0A               253 	ld	a,#0x0A
   0071 12                  254 	ld	(de),a
                            255 ; genPlus
                            256 ; genPlusIncr
   0072 11 13 00            257 	ld	de,#_map1 + 0 + 19
                            258 ; genAssign (pointer)
   0075 3E 0A               259 	ld	a,#0x0A
   0077 12                  260 	ld	(de),a
                            261 ; genPlus
                            262 ; genPlusIncr
   0078 11 14 00            263 	ld	de,#_map1 + 0 + 20
                            264 ; genAssign (pointer)
   007B 3E 0A               265 	ld	a,#0x0A
   007D 12                  266 	ld	(de),a
                            267 ; genPlus
                            268 ; genPlusIncr
   007E 11 15 00            269 	ld	de,#_map1 + 0 + 21
                            270 ; genAssign (pointer)
   0081 3E 0A               271 	ld	a,#0x0A
   0083 12                  272 	ld	(de),a
                            273 ; genPlus
                            274 ; genPlusIncr
   0084 11 16 00            275 	ld	de,#_map1 + 0 + 22
                            276 ; genAssign (pointer)
   0087 3E 0A               277 	ld	a,#0x0A
   0089 12                  278 	ld	(de),a
                            279 ; genPlus
                            280 ; genPlusIncr
   008A 11 17 00            281 	ld	de,#_map1 + 0 + 23
                            282 ; genAssign (pointer)
   008D 3E 0A               283 	ld	a,#0x0A
   008F 12                  284 	ld	(de),a
                            285 ; genPlus
                            286 ; genPlusIncr
   0090 11 18 00            287 	ld	de,#_map1 + 0 + 24
                            288 ; genAssign (pointer)
   0093 3E 0A               289 	ld	a,#0x0A
   0095 12                  290 	ld	(de),a
                            291 ; genPlus
                            292 ; genPlusIncr
   0096 11 19 00            293 	ld	de,#_map1 + 0 + 25
                            294 ; genAssign (pointer)
   0099 3E 0A               295 	ld	a,#0x0A
   009B 12                  296 	ld	(de),a
                            297 ; genPlus
                            298 ; genPlusIncr
   009C 11 1A 00            299 	ld	de,#_map1 + 0 + 26
                            300 ; genAssign (pointer)
   009F 3E 0A               301 	ld	a,#0x0A
   00A1 12                  302 	ld	(de),a
                            303 ; genPlus
                            304 ; genPlusIncr
   00A2 11 1B 00            305 	ld	de,#_map1 + 0 + 27
                            306 ; genAssign (pointer)
   00A5 3E 0A               307 	ld	a,#0x0A
   00A7 12                  308 	ld	(de),a
                            309 ; genPlus
                            310 ; genPlusIncr
   00A8 11 1C 00            311 	ld	de,#_map1 + 0 + 28
                            312 ; genAssign (pointer)
   00AB 3E 0B               313 	ld	a,#0x0B
   00AD 12                  314 	ld	(de),a
                            315 ; genPlus
                            316 ; genPlusIncr
   00AE 11 1D 00            317 	ld	de,#_map1 + 0 + 29
                            318 ; genAssign (pointer)
   00B1 3E 0A               319 	ld	a,#0x0A
   00B3 12                  320 	ld	(de),a
                            321 ; genPlus
                            322 ; genPlusIncr
   00B4 11 1E 00            323 	ld	de,#_map1 + 0 + 30
                            324 ; genAssign (pointer)
   00B7 3E 0A               325 	ld	a,#0x0A
   00B9 12                  326 	ld	(de),a
                            327 ; genPlus
                            328 ; genPlusIncr
   00BA 11 1F 00            329 	ld	de,#_map1 + 0 + 31
                            330 ; genAssign (pointer)
   00BD 3E 0A               331 	ld	a,#0x0A
   00BF 12                  332 	ld	(de),a
                            333 ; genPlus
                            334 ; genPlusIncr
   00C0 11 20 00            335 	ld	de,#_map1 + 0 + 32
                            336 ; genAssign (pointer)
   00C3 3E 0A               337 	ld	a,#0x0A
   00C5 12                  338 	ld	(de),a
                            339 ; genPlus
                            340 ; genPlusIncr
   00C6 11 21 00            341 	ld	de,#_map1 + 0 + 33
                            342 ; genAssign (pointer)
   00C9 3E 0A               343 	ld	a,#0x0A
   00CB 12                  344 	ld	(de),a
                            345 ; genPlus
                            346 ; genPlusIncr
   00CC 11 22 00            347 	ld	de,#_map1 + 0 + 34
                            348 ; genAssign (pointer)
   00CF 3E 0A               349 	ld	a,#0x0A
   00D1 12                  350 	ld	(de),a
                            351 ; genPlus
                            352 ; genPlusIncr
   00D2 11 23 00            353 	ld	de,#_map1 + 0 + 35
                            354 ; genAssign (pointer)
   00D5 3E 0A               355 	ld	a,#0x0A
   00D7 12                  356 	ld	(de),a
                            357 ; genPlus
                            358 ; genPlusIncr
   00D8 11 24 00            359 	ld	de,#_map1 + 0 + 36
                            360 ; genAssign (pointer)
   00DB 3E 0A               361 	ld	a,#0x0A
   00DD 12                  362 	ld	(de),a
                            363 ; genPlus
                            364 ; genPlusIncr
   00DE 11 25 00            365 	ld	de,#_map1 + 0 + 37
                            366 ; genAssign (pointer)
   00E1 3E 0A               367 	ld	a,#0x0A
   00E3 12                  368 	ld	(de),a
                            369 ; genPlus
                            370 ; genPlusIncr
   00E4 11 26 00            371 	ld	de,#_map1 + 0 + 38
                            372 ; genAssign (pointer)
   00E7 3E 0A               373 	ld	a,#0x0A
   00E9 12                  374 	ld	(de),a
                            375 ; genPlus
                            376 ; genPlusIncr
   00EA 11 27 00            377 	ld	de,#_map1 + 0 + 39
                            378 ; genAssign (pointer)
   00ED 3E 0A               379 	ld	a,#0x0A
   00EF 12                  380 	ld	(de),a
                            381 ; genPlus
                            382 ; genPlusIncr
   00F0 11 28 00            383 	ld	de,#_map1 + 0 + 40
                            384 ; genAssign (pointer)
   00F3 3E 0A               385 	ld	a,#0x0A
   00F5 12                  386 	ld	(de),a
                            387 ; genPlus
                            388 ; genPlusIncr
   00F6 11 29 00            389 	ld	de,#_map1 + 0 + 41
                            390 ; genAssign (pointer)
   00F9 3E 00               391 	ld	a,#0x00
   00FB 12                  392 	ld	(de),a
                            393 ; genPlus
                            394 ; genPlusIncr
   00FC 11 2A 00            395 	ld	de,#_map1 + 0 + 42
                            396 ; genAssign (pointer)
   00FF 3E 00               397 	ld	a,#0x00
   0101 12                  398 	ld	(de),a
                            399 ; genPlus
                            400 ; genPlusIncr
   0102 11 2B 00            401 	ld	de,#_map1 + 0 + 43
                            402 ; genAssign (pointer)
   0105 3E 00               403 	ld	a,#0x00
   0107 12                  404 	ld	(de),a
                            405 ; genPlus
                            406 ; genPlusIncr
   0108 11 2C 00            407 	ld	de,#_map1 + 0 + 44
                            408 ; genAssign (pointer)
   010B 3E 00               409 	ld	a,#0x00
   010D 12                  410 	ld	(de),a
                            411 ; genPlus
                            412 ; genPlusIncr
   010E 11 2D 00            413 	ld	de,#_map1 + 0 + 45
                            414 ; genAssign (pointer)
   0111 3E 00               415 	ld	a,#0x00
   0113 12                  416 	ld	(de),a
                            417 ; genPlus
                            418 ; genPlusIncr
   0114 11 2E 00            419 	ld	de,#_map1 + 0 + 46
                            420 ; genAssign (pointer)
   0117 3E 00               421 	ld	a,#0x00
   0119 12                  422 	ld	(de),a
                            423 ; genPlus
                            424 ; genPlusIncr
   011A 11 2F 00            425 	ld	de,#_map1 + 0 + 47
                            426 ; genAssign (pointer)
   011D 3E 00               427 	ld	a,#0x00
   011F 12                  428 	ld	(de),a
                            429 ; genPlus
                            430 ; genPlusIncr
   0120 11 30 00            431 	ld	de,#_map1 + 0 + 48
                            432 ; genAssign (pointer)
   0123 3E 00               433 	ld	a,#0x00
   0125 12                  434 	ld	(de),a
                            435 ; genPlus
                            436 ; genPlusIncr
   0126 11 31 00            437 	ld	de,#_map1 + 0 + 49
                            438 ; genAssign (pointer)
   0129 3E 00               439 	ld	a,#0x00
   012B 12                  440 	ld	(de),a
                            441 ; genPlus
                            442 ; genPlusIncr
   012C 11 32 00            443 	ld	de,#_map1 + 0 + 50
                            444 ; genAssign (pointer)
   012F 3E 00               445 	ld	a,#0x00
   0131 12                  446 	ld	(de),a
                            447 ; genPlus
                            448 ; genPlusIncr
   0132 11 33 00            449 	ld	de,#_map1 + 0 + 51
                            450 ; genAssign (pointer)
   0135 3E 00               451 	ld	a,#0x00
   0137 12                  452 	ld	(de),a
                            453 ; genPlus
                            454 ; genPlusIncr
   0138 11 34 00            455 	ld	de,#_map1 + 0 + 52
                            456 ; genAssign (pointer)
   013B 3E 00               457 	ld	a,#0x00
   013D 12                  458 	ld	(de),a
                            459 ; genPlus
                            460 ; genPlusIncr
   013E 11 35 00            461 	ld	de,#_map1 + 0 + 53
                            462 ; genAssign (pointer)
   0141 3E 00               463 	ld	a,#0x00
   0143 12                  464 	ld	(de),a
                            465 ; genPlus
                            466 ; genPlusIncr
   0144 11 36 00            467 	ld	de,#_map1 + 0 + 54
                            468 ; genAssign (pointer)
   0147 3E 00               469 	ld	a,#0x00
   0149 12                  470 	ld	(de),a
                            471 ; genPlus
                            472 ; genPlusIncr
   014A 11 37 00            473 	ld	de,#_map1 + 0 + 55
                            474 ; genAssign (pointer)
   014D 3E 00               475 	ld	a,#0x00
   014F 12                  476 	ld	(de),a
                            477 ; genPlus
                            478 ; genPlusIncr
   0150 11 38 00            479 	ld	de,#_map1 + 0 + 56
                            480 ; genAssign (pointer)
   0153 3E 00               481 	ld	a,#0x00
   0155 12                  482 	ld	(de),a
                            483 ; genPlus
                            484 ; genPlusIncr
   0156 11 39 00            485 	ld	de,#_map1 + 0 + 57
                            486 ; genAssign (pointer)
   0159 3E 00               487 	ld	a,#0x00
   015B 12                  488 	ld	(de),a
                            489 ; genPlus
                            490 ; genPlusIncr
   015C 11 3A 00            491 	ld	de,#_map1 + 0 + 58
                            492 ; genAssign (pointer)
   015F 3E 00               493 	ld	a,#0x00
   0161 12                  494 	ld	(de),a
                            495 ; genPlus
                            496 ; genPlusIncr
   0162 11 3B 00            497 	ld	de,#_map1 + 0 + 59
                            498 ; genAssign (pointer)
   0165 3E 0A               499 	ld	a,#0x0A
   0167 12                  500 	ld	(de),a
                            501 ; genPlus
                            502 ; genPlusIncr
   0168 11 3C 00            503 	ld	de,#_map1 + 0 + 60
                            504 ; genAssign (pointer)
   016B 3E 0A               505 	ld	a,#0x0A
   016D 12                  506 	ld	(de),a
                            507 ; genPlus
                            508 ; genPlusIncr
   016E 11 3D 00            509 	ld	de,#_map1 + 0 + 61
                            510 ; genAssign (pointer)
   0171 3E 00               511 	ld	a,#0x00
   0173 12                  512 	ld	(de),a
                            513 ; genPlus
                            514 ; genPlusIncr
   0174 11 3E 00            515 	ld	de,#_map1 + 0 + 62
                            516 ; genAssign (pointer)
   0177 3E 00               517 	ld	a,#0x00
   0179 12                  518 	ld	(de),a
                            519 ; genPlus
                            520 ; genPlusIncr
   017A 11 3F 00            521 	ld	de,#_map1 + 0 + 63
                            522 ; genAssign (pointer)
   017D 3E 0A               523 	ld	a,#0x0A
   017F 12                  524 	ld	(de),a
                            525 ; genPlus
                            526 ; genPlusIncr
   0180 11 40 00            527 	ld	de,#_map1 + 0 + 64
                            528 ; genAssign (pointer)
   0183 3E 0A               529 	ld	a,#0x0A
   0185 12                  530 	ld	(de),a
                            531 ; genPlus
                            532 ; genPlusIncr
   0186 11 41 00            533 	ld	de,#_map1 + 0 + 65
                            534 ; genAssign (pointer)
   0189 3E 0A               535 	ld	a,#0x0A
   018B 12                  536 	ld	(de),a
                            537 ; genPlus
                            538 ; genPlusIncr
   018C 11 42 00            539 	ld	de,#_map1 + 0 + 66
                            540 ; genAssign (pointer)
   018F 3E 00               541 	ld	a,#0x00
   0191 12                  542 	ld	(de),a
                            543 ; genPlus
                            544 ; genPlusIncr
   0192 11 43 00            545 	ld	de,#_map1 + 0 + 67
                            546 ; genAssign (pointer)
   0195 3E 00               547 	ld	a,#0x00
   0197 12                  548 	ld	(de),a
                            549 ; genPlus
                            550 ; genPlusIncr
   0198 11 44 00            551 	ld	de,#_map1 + 0 + 68
                            552 ; genAssign (pointer)
   019B 3E 00               553 	ld	a,#0x00
   019D 12                  554 	ld	(de),a
                            555 ; genPlus
                            556 ; genPlusIncr
   019E 11 45 00            557 	ld	de,#_map1 + 0 + 69
                            558 ; genAssign (pointer)
   01A1 3E 00               559 	ld	a,#0x00
   01A3 12                  560 	ld	(de),a
                            561 ; genPlus
                            562 ; genPlusIncr
   01A4 11 46 00            563 	ld	de,#_map1 + 0 + 70
                            564 ; genAssign (pointer)
   01A7 3E 00               565 	ld	a,#0x00
   01A9 12                  566 	ld	(de),a
                            567 ; genPlus
                            568 ; genPlusIncr
   01AA 11 47 00            569 	ld	de,#_map1 + 0 + 71
                            570 ; genAssign (pointer)
   01AD 3E 00               571 	ld	a,#0x00
   01AF 12                  572 	ld	(de),a
                            573 ; genPlus
                            574 ; genPlusIncr
   01B0 11 48 00            575 	ld	de,#_map1 + 0 + 72
                            576 ; genAssign (pointer)
   01B3 3E 00               577 	ld	a,#0x00
   01B5 12                  578 	ld	(de),a
                            579 ; genPlus
                            580 ; genPlusIncr
   01B6 11 49 00            581 	ld	de,#_map1 + 0 + 73
                            582 ; genAssign (pointer)
   01B9 3E 0A               583 	ld	a,#0x0A
   01BB 12                  584 	ld	(de),a
                            585 ; genPlus
                            586 ; genPlusIncr
   01BC 11 4A 00            587 	ld	de,#_map1 + 0 + 74
                            588 ; genAssign (pointer)
   01BF 3E 0A               589 	ld	a,#0x0A
   01C1 12                  590 	ld	(de),a
                            591 ; genPlus
                            592 ; genPlusIncr
   01C2 11 4B 00            593 	ld	de,#_map1 + 0 + 75
                            594 ; genAssign (pointer)
   01C5 3E 0A               595 	ld	a,#0x0A
   01C7 12                  596 	ld	(de),a
                            597 ; genPlus
                            598 ; genPlusIncr
   01C8 11 4C 00            599 	ld	de,#_map1 + 0 + 76
                            600 ; genAssign (pointer)
   01CB 3E 0A               601 	ld	a,#0x0A
   01CD 12                  602 	ld	(de),a
                            603 ; genPlus
                            604 ; genPlusIncr
   01CE 11 4D 00            605 	ld	de,#_map1 + 0 + 77
                            606 ; genAssign (pointer)
   01D1 3E 0A               607 	ld	a,#0x0A
   01D3 12                  608 	ld	(de),a
                            609 ; genPlus
                            610 ; genPlusIncr
   01D4 11 4E 00            611 	ld	de,#_map1 + 0 + 78
                            612 ; genAssign (pointer)
   01D7 3E 00               613 	ld	a,#0x00
   01D9 12                  614 	ld	(de),a
                            615 ; genPlus
                            616 ; genPlusIncr
   01DA 11 4F 00            617 	ld	de,#_map1 + 0 + 79
                            618 ; genAssign (pointer)
   01DD 3E 0A               619 	ld	a,#0x0A
   01DF 12                  620 	ld	(de),a
                            621 ; genPlus
                            622 ; genPlusIncr
   01E0 11 50 00            623 	ld	de,#_map1 + 0 + 80
                            624 ; genAssign (pointer)
   01E3 3E 0A               625 	ld	a,#0x0A
   01E5 12                  626 	ld	(de),a
                            627 ; genPlus
                            628 ; genPlusIncr
   01E6 11 51 00            629 	ld	de,#_map1 + 0 + 81
                            630 ; genAssign (pointer)
   01E9 3E 00               631 	ld	a,#0x00
   01EB 12                  632 	ld	(de),a
                            633 ; genPlus
                            634 ; genPlusIncr
   01EC 11 52 00            635 	ld	de,#_map1 + 0 + 82
                            636 ; genAssign (pointer)
   01EF 3E 00               637 	ld	a,#0x00
   01F1 12                  638 	ld	(de),a
                            639 ; genPlus
                            640 ; genPlusIncr
   01F2 11 53 00            641 	ld	de,#_map1 + 0 + 83
                            642 ; genAssign (pointer)
   01F5 3E 0A               643 	ld	a,#0x0A
   01F7 12                  644 	ld	(de),a
                            645 ; genPlus
                            646 ; genPlusIncr
   01F8 11 54 00            647 	ld	de,#_map1 + 0 + 84
                            648 ; genAssign (pointer)
   01FB 3E 00               649 	ld	a,#0x00
   01FD 12                  650 	ld	(de),a
                            651 ; genPlus
                            652 ; genPlusIncr
   01FE 11 55 00            653 	ld	de,#_map1 + 0 + 85
                            654 ; genAssign (pointer)
   0201 3E 0A               655 	ld	a,#0x0A
   0203 12                  656 	ld	(de),a
                            657 ; genPlus
                            658 ; genPlusIncr
   0204 11 56 00            659 	ld	de,#_map1 + 0 + 86
                            660 ; genAssign (pointer)
   0207 3E 00               661 	ld	a,#0x00
   0209 12                  662 	ld	(de),a
                            663 ; genPlus
                            664 ; genPlusIncr
   020A 11 57 00            665 	ld	de,#_map1 + 0 + 87
                            666 ; genAssign (pointer)
   020D 3E 00               667 	ld	a,#0x00
   020F 12                  668 	ld	(de),a
                            669 ; genPlus
                            670 ; genPlusIncr
   0210 11 58 00            671 	ld	de,#_map1 + 0 + 88
                            672 ; genAssign (pointer)
   0213 3E 00               673 	ld	a,#0x00
   0215 12                  674 	ld	(de),a
                            675 ; genPlus
                            676 ; genPlusIncr
   0216 11 59 00            677 	ld	de,#_map1 + 0 + 89
                            678 ; genAssign (pointer)
   0219 3E 00               679 	ld	a,#0x00
   021B 12                  680 	ld	(de),a
                            681 ; genPlus
                            682 ; genPlusIncr
   021C 11 5A 00            683 	ld	de,#_map1 + 0 + 90
                            684 ; genAssign (pointer)
   021F 3E 00               685 	ld	a,#0x00
   0221 12                  686 	ld	(de),a
                            687 ; genPlus
                            688 ; genPlusIncr
   0222 11 5B 00            689 	ld	de,#_map1 + 0 + 91
                            690 ; genAssign (pointer)
   0225 3E 00               691 	ld	a,#0x00
   0227 12                  692 	ld	(de),a
                            693 ; genPlus
                            694 ; genPlusIncr
   0228 11 5C 00            695 	ld	de,#_map1 + 0 + 92
                            696 ; genAssign (pointer)
   022B 3E 00               697 	ld	a,#0x00
   022D 12                  698 	ld	(de),a
                            699 ; genPlus
                            700 ; genPlusIncr
   022E 11 5D 00            701 	ld	de,#_map1 + 0 + 93
                            702 ; genAssign (pointer)
   0231 3E 0A               703 	ld	a,#0x0A
   0233 12                  704 	ld	(de),a
                            705 ; genPlus
                            706 ; genPlusIncr
   0234 11 5E 00            707 	ld	de,#_map1 + 0 + 94
                            708 ; genAssign (pointer)
   0237 3E 00               709 	ld	a,#0x00
   0239 12                  710 	ld	(de),a
                            711 ; genPlus
                            712 ; genPlusIncr
   023A 11 5F 00            713 	ld	de,#_map1 + 0 + 95
                            714 ; genAssign (pointer)
   023D 3E 00               715 	ld	a,#0x00
   023F 12                  716 	ld	(de),a
                            717 ; genPlus
                            718 ; genPlusIncr
   0240 11 60 00            719 	ld	de,#_map1 + 0 + 96
                            720 ; genAssign (pointer)
   0243 3E 00               721 	ld	a,#0x00
   0245 12                  722 	ld	(de),a
                            723 ; genPlus
                            724 ; genPlusIncr
   0246 11 61 00            725 	ld	de,#_map1 + 0 + 97
                            726 ; genAssign (pointer)
   0249 3E 0A               727 	ld	a,#0x0A
   024B 12                  728 	ld	(de),a
                            729 ; genPlus
                            730 ; genPlusIncr
   024C 11 62 00            731 	ld	de,#_map1 + 0 + 98
                            732 ; genAssign (pointer)
   024F 3E 00               733 	ld	a,#0x00
   0251 12                  734 	ld	(de),a
                            735 ; genPlus
                            736 ; genPlusIncr
   0252 11 63 00            737 	ld	de,#_map1 + 0 + 99
                            738 ; genAssign (pointer)
   0255 3E 0A               739 	ld	a,#0x0A
   0257 12                  740 	ld	(de),a
                            741 ; genPlus
                            742 ; genPlusIncr
   0258 11 64 00            743 	ld	de,#_map1 + 0 + 100
                            744 ; genAssign (pointer)
   025B 3E 0A               745 	ld	a,#0x0A
   025D 12                  746 	ld	(de),a
                            747 ; genPlus
                            748 ; genPlusIncr
   025E 11 65 00            749 	ld	de,#_map1 + 0 + 101
                            750 ; genAssign (pointer)
   0261 3E 00               751 	ld	a,#0x00
   0263 12                  752 	ld	(de),a
                            753 ; genPlus
                            754 ; genPlusIncr
   0264 11 66 00            755 	ld	de,#_map1 + 0 + 102
                            756 ; genAssign (pointer)
   0267 3E 00               757 	ld	a,#0x00
   0269 12                  758 	ld	(de),a
                            759 ; genPlus
                            760 ; genPlusIncr
   026A 11 67 00            761 	ld	de,#_map1 + 0 + 103
                            762 ; genAssign (pointer)
   026D 3E 0A               763 	ld	a,#0x0A
   026F 12                  764 	ld	(de),a
                            765 ; genPlus
                            766 ; genPlusIncr
   0270 11 68 00            767 	ld	de,#_map1 + 0 + 104
                            768 ; genAssign (pointer)
   0273 3E 00               769 	ld	a,#0x00
   0275 12                  770 	ld	(de),a
                            771 ; genPlus
                            772 ; genPlusIncr
   0276 11 69 00            773 	ld	de,#_map1 + 0 + 105
                            774 ; genAssign (pointer)
   0279 3E 0A               775 	ld	a,#0x0A
   027B 12                  776 	ld	(de),a
                            777 ; genPlus
                            778 ; genPlusIncr
   027C 11 6A 00            779 	ld	de,#_map1 + 0 + 106
                            780 ; genAssign (pointer)
   027F 3E 00               781 	ld	a,#0x00
   0281 12                  782 	ld	(de),a
                            783 ; genPlus
                            784 ; genPlusIncr
   0282 11 6B 00            785 	ld	de,#_map1 + 0 + 107
                            786 ; genAssign (pointer)
   0285 3E 00               787 	ld	a,#0x00
   0287 12                  788 	ld	(de),a
                            789 ; genPlus
                            790 ; genPlusIncr
   0288 11 6C 00            791 	ld	de,#_map1 + 0 + 108
                            792 ; genAssign (pointer)
   028B 3E 00               793 	ld	a,#0x00
   028D 12                  794 	ld	(de),a
                            795 ; genPlus
                            796 ; genPlusIncr
   028E 11 6D 00            797 	ld	de,#_map1 + 0 + 109
                            798 ; genAssign (pointer)
   0291 3E 00               799 	ld	a,#0x00
   0293 12                  800 	ld	(de),a
                            801 ; genPlus
                            802 ; genPlusIncr
   0294 11 6E 00            803 	ld	de,#_map1 + 0 + 110
                            804 ; genAssign (pointer)
   0297 3E 00               805 	ld	a,#0x00
   0299 12                  806 	ld	(de),a
                            807 ; genPlus
                            808 ; genPlusIncr
   029A 11 6F 00            809 	ld	de,#_map1 + 0 + 111
                            810 ; genAssign (pointer)
   029D 3E 00               811 	ld	a,#0x00
   029F 12                  812 	ld	(de),a
                            813 ; genPlus
                            814 ; genPlusIncr
   02A0 11 70 00            815 	ld	de,#_map1 + 0 + 112
                            816 ; genAssign (pointer)
   02A3 3E 00               817 	ld	a,#0x00
   02A5 12                  818 	ld	(de),a
                            819 ; genPlus
                            820 ; genPlusIncr
   02A6 11 71 00            821 	ld	de,#_map1 + 0 + 113
                            822 ; genAssign (pointer)
   02A9 3E 0A               823 	ld	a,#0x0A
   02AB 12                  824 	ld	(de),a
                            825 ; genPlus
                            826 ; genPlusIncr
   02AC 11 72 00            827 	ld	de,#_map1 + 0 + 114
                            828 ; genAssign (pointer)
   02AF 3E 00               829 	ld	a,#0x00
   02B1 12                  830 	ld	(de),a
                            831 ; genPlus
                            832 ; genPlusIncr
   02B2 11 73 00            833 	ld	de,#_map1 + 0 + 115
                            834 ; genAssign (pointer)
   02B5 3E 0A               835 	ld	a,#0x0A
   02B7 12                  836 	ld	(de),a
                            837 ; genPlus
                            838 ; genPlusIncr
   02B8 11 74 00            839 	ld	de,#_map1 + 0 + 116
                            840 ; genAssign (pointer)
   02BB 3E 00               841 	ld	a,#0x00
   02BD 12                  842 	ld	(de),a
                            843 ; genPlus
                            844 ; genPlusIncr
   02BE 11 75 00            845 	ld	de,#_map1 + 0 + 117
                            846 ; genAssign (pointer)
   02C1 3E 0A               847 	ld	a,#0x0A
   02C3 12                  848 	ld	(de),a
                            849 ; genPlus
                            850 ; genPlusIncr
   02C4 11 76 00            851 	ld	de,#_map1 + 0 + 118
                            852 ; genAssign (pointer)
   02C7 3E 00               853 	ld	a,#0x00
   02C9 12                  854 	ld	(de),a
                            855 ; genPlus
                            856 ; genPlusIncr
   02CA 11 77 00            857 	ld	de,#_map1 + 0 + 119
                            858 ; genAssign (pointer)
   02CD 3E 0A               859 	ld	a,#0x0A
   02CF 12                  860 	ld	(de),a
                            861 ; genPlus
                            862 ; genPlusIncr
   02D0 11 78 00            863 	ld	de,#_map1 + 0 + 120
                            864 ; genAssign (pointer)
   02D3 3E 0A               865 	ld	a,#0x0A
   02D5 12                  866 	ld	(de),a
                            867 ; genPlus
                            868 ; genPlusIncr
   02D6 11 79 00            869 	ld	de,#_map1 + 0 + 121
                            870 ; genAssign (pointer)
   02D9 3E 00               871 	ld	a,#0x00
   02DB 12                  872 	ld	(de),a
                            873 ; genPlus
                            874 ; genPlusIncr
   02DC 11 7A 00            875 	ld	de,#_map1 + 0 + 122
                            876 ; genAssign (pointer)
   02DF 3E 00               877 	ld	a,#0x00
   02E1 12                  878 	ld	(de),a
                            879 ; genPlus
                            880 ; genPlusIncr
   02E2 11 7B 00            881 	ld	de,#_map1 + 0 + 123
                            882 ; genAssign (pointer)
   02E5 3E 0A               883 	ld	a,#0x0A
   02E7 12                  884 	ld	(de),a
                            885 ; genPlus
                            886 ; genPlusIncr
   02E8 11 7C 00            887 	ld	de,#_map1 + 0 + 124
                            888 ; genAssign (pointer)
   02EB 3E 00               889 	ld	a,#0x00
   02ED 12                  890 	ld	(de),a
                            891 ; genPlus
                            892 ; genPlusIncr
   02EE 11 7D 00            893 	ld	de,#_map1 + 0 + 125
                            894 ; genAssign (pointer)
   02F1 3E 0A               895 	ld	a,#0x0A
   02F3 12                  896 	ld	(de),a
                            897 ; genPlus
                            898 ; genPlusIncr
   02F4 11 7E 00            899 	ld	de,#_map1 + 0 + 126
                            900 ; genAssign (pointer)
   02F7 3E 00               901 	ld	a,#0x00
   02F9 12                  902 	ld	(de),a
                            903 ; genPlus
                            904 ; genPlusIncr
   02FA 11 7F 00            905 	ld	de,#_map1 + 0 + 127
                            906 ; genAssign (pointer)
   02FD 3E 00               907 	ld	a,#0x00
   02FF 12                  908 	ld	(de),a
                            909 ; genPlus
                            910 ; genPlusIncr
   0300 11 80 00            911 	ld	de,#_map1 + 0 + 128
                            912 ; genAssign (pointer)
   0303 3E 00               913 	ld	a,#0x00
   0305 12                  914 	ld	(de),a
                            915 ; genPlus
                            916 ; genPlusIncr
   0306 11 81 00            917 	ld	de,#_map1 + 0 + 129
                            918 ; genAssign (pointer)
   0309 3E 00               919 	ld	a,#0x00
   030B 12                  920 	ld	(de),a
                            921 ; genPlus
                            922 ; genPlusIncr
   030C 11 82 00            923 	ld	de,#_map1 + 0 + 130
                            924 ; genAssign (pointer)
   030F 3E 00               925 	ld	a,#0x00
   0311 12                  926 	ld	(de),a
                            927 ; genPlus
                            928 ; genPlusIncr
   0312 11 83 00            929 	ld	de,#_map1 + 0 + 131
                            930 ; genAssign (pointer)
   0315 3E 00               931 	ld	a,#0x00
   0317 12                  932 	ld	(de),a
                            933 ; genPlus
                            934 ; genPlusIncr
   0318 11 84 00            935 	ld	de,#_map1 + 0 + 132
                            936 ; genAssign (pointer)
   031B 3E 00               937 	ld	a,#0x00
   031D 12                  938 	ld	(de),a
                            939 ; genPlus
                            940 ; genPlusIncr
   031E 11 85 00            941 	ld	de,#_map1 + 0 + 133
                            942 ; genAssign (pointer)
   0321 3E 0A               943 	ld	a,#0x0A
   0323 12                  944 	ld	(de),a
                            945 ; genPlus
                            946 ; genPlusIncr
   0324 11 86 00            947 	ld	de,#_map1 + 0 + 134
                            948 ; genAssign (pointer)
   0327 3E 00               949 	ld	a,#0x00
   0329 12                  950 	ld	(de),a
                            951 ; genPlus
                            952 ; genPlusIncr
   032A 11 87 00            953 	ld	de,#_map1 + 0 + 135
                            954 ; genAssign (pointer)
   032D 3E 0A               955 	ld	a,#0x0A
   032F 12                  956 	ld	(de),a
                            957 ; genPlus
                            958 ; genPlusIncr
   0330 11 88 00            959 	ld	de,#_map1 + 0 + 136
                            960 ; genAssign (pointer)
   0333 3E 00               961 	ld	a,#0x00
   0335 12                  962 	ld	(de),a
                            963 ; genPlus
                            964 ; genPlusIncr
   0336 11 89 00            965 	ld	de,#_map1 + 0 + 137
                            966 ; genAssign (pointer)
   0339 3E 00               967 	ld	a,#0x00
   033B 12                  968 	ld	(de),a
                            969 ; genPlus
                            970 ; genPlusIncr
   033C 11 8A 00            971 	ld	de,#_map1 + 0 + 138
                            972 ; genAssign (pointer)
   033F 3E 00               973 	ld	a,#0x00
   0341 12                  974 	ld	(de),a
                            975 ; genPlus
                            976 ; genPlusIncr
   0342 11 8B 00            977 	ld	de,#_map1 + 0 + 139
                            978 ; genAssign (pointer)
   0345 3E 0A               979 	ld	a,#0x0A
   0347 12                  980 	ld	(de),a
                            981 ; genPlus
                            982 ; genPlusIncr
   0348 11 8C 00            983 	ld	de,#_map1 + 0 + 140
                            984 ; genAssign (pointer)
   034B 3E 0A               985 	ld	a,#0x0A
   034D 12                  986 	ld	(de),a
                            987 ; genPlus
                            988 ; genPlusIncr
   034E 11 8D 00            989 	ld	de,#_map1 + 0 + 141
                            990 ; genAssign (pointer)
   0351 3E 00               991 	ld	a,#0x00
   0353 12                  992 	ld	(de),a
                            993 ; genPlus
                            994 ; genPlusIncr
   0354 11 8E 00            995 	ld	de,#_map1 + 0 + 142
                            996 ; genAssign (pointer)
   0357 3E 00               997 	ld	a,#0x00
   0359 12                  998 	ld	(de),a
                            999 ; genPlus
                           1000 ; genPlusIncr
   035A 11 8F 00           1001 	ld	de,#_map1 + 0 + 143
                           1002 ; genAssign (pointer)
   035D 3E 0A              1003 	ld	a,#0x0A
   035F 12                 1004 	ld	(de),a
                           1005 ; genPlus
                           1006 ; genPlusIncr
   0360 11 90 00           1007 	ld	de,#_map1 + 0 + 144
                           1008 ; genAssign (pointer)
   0363 3E 00              1009 	ld	a,#0x00
   0365 12                 1010 	ld	(de),a
                           1011 ; genPlus
                           1012 ; genPlusIncr
   0366 11 91 00           1013 	ld	de,#_map1 + 0 + 145
                           1014 ; genAssign (pointer)
   0369 3E 0A              1015 	ld	a,#0x0A
   036B 12                 1016 	ld	(de),a
                           1017 ; genPlus
                           1018 ; genPlusIncr
   036C 11 92 00           1019 	ld	de,#_map1 + 0 + 146
                           1020 ; genAssign (pointer)
   036F 3E 00              1021 	ld	a,#0x00
   0371 12                 1022 	ld	(de),a
                           1023 ; genPlus
                           1024 ; genPlusIncr
   0372 11 93 00           1025 	ld	de,#_map1 + 0 + 147
                           1026 ; genAssign (pointer)
   0375 3E 00              1027 	ld	a,#0x00
   0377 12                 1028 	ld	(de),a
                           1029 ; genPlus
                           1030 ; genPlusIncr
   0378 11 94 00           1031 	ld	de,#_map1 + 0 + 148
                           1032 ; genAssign (pointer)
   037B 3E 00              1033 	ld	a,#0x00
   037D 12                 1034 	ld	(de),a
                           1035 ; genPlus
                           1036 ; genPlusIncr
   037E 11 95 00           1037 	ld	de,#_map1 + 0 + 149
                           1038 ; genAssign (pointer)
   0381 3E 00              1039 	ld	a,#0x00
   0383 12                 1040 	ld	(de),a
                           1041 ; genPlus
                           1042 ; genPlusIncr
   0384 11 96 00           1043 	ld	de,#_map1 + 0 + 150
                           1044 ; genAssign (pointer)
   0387 3E 00              1045 	ld	a,#0x00
   0389 12                 1046 	ld	(de),a
                           1047 ; genPlus
                           1048 ; genPlusIncr
   038A 11 97 00           1049 	ld	de,#_map1 + 0 + 151
                           1050 ; genAssign (pointer)
   038D 3E 00              1051 	ld	a,#0x00
   038F 12                 1052 	ld	(de),a
                           1053 ; genPlus
                           1054 ; genPlusIncr
   0390 11 98 00           1055 	ld	de,#_map1 + 0 + 152
                           1056 ; genAssign (pointer)
   0393 3E 00              1057 	ld	a,#0x00
   0395 12                 1058 	ld	(de),a
                           1059 ; genPlus
                           1060 ; genPlusIncr
   0396 11 99 00           1061 	ld	de,#_map1 + 0 + 153
                           1062 ; genAssign (pointer)
   0399 3E 0A              1063 	ld	a,#0x0A
   039B 12                 1064 	ld	(de),a
                           1065 ; genPlus
                           1066 ; genPlusIncr
   039C 11 9A 00           1067 	ld	de,#_map1 + 0 + 154
                           1068 ; genAssign (pointer)
   039F 3E 00              1069 	ld	a,#0x00
   03A1 12                 1070 	ld	(de),a
                           1071 ; genPlus
                           1072 ; genPlusIncr
   03A2 11 9B 00           1073 	ld	de,#_map1 + 0 + 155
                           1074 ; genAssign (pointer)
   03A5 3E 0A              1075 	ld	a,#0x0A
   03A7 12                 1076 	ld	(de),a
                           1077 ; genPlus
                           1078 ; genPlusIncr
   03A8 11 9C 00           1079 	ld	de,#_map1 + 0 + 156
                           1080 ; genAssign (pointer)
   03AB 3E 00              1081 	ld	a,#0x00
   03AD 12                 1082 	ld	(de),a
                           1083 ; genPlus
                           1084 ; genPlusIncr
   03AE 11 9D 00           1085 	ld	de,#_map1 + 0 + 157
                           1086 ; genAssign (pointer)
   03B1 3E 0A              1087 	ld	a,#0x0A
   03B3 12                 1088 	ld	(de),a
                           1089 ; genPlus
                           1090 ; genPlusIncr
   03B4 11 9E 00           1091 	ld	de,#_map1 + 0 + 158
                           1092 ; genAssign (pointer)
   03B7 3E 00              1093 	ld	a,#0x00
   03B9 12                 1094 	ld	(de),a
                           1095 ; genPlus
                           1096 ; genPlusIncr
   03BA 11 9F 00           1097 	ld	de,#_map1 + 0 + 159
                           1098 ; genAssign (pointer)
   03BD 3E 0A              1099 	ld	a,#0x0A
   03BF 12                 1100 	ld	(de),a
                           1101 ; genPlus
                           1102 ; genPlusIncr
   03C0 11 A0 00           1103 	ld	de,#_map1 + 0 + 160
                           1104 ; genAssign (pointer)
   03C3 3E 0A              1105 	ld	a,#0x0A
   03C5 12                 1106 	ld	(de),a
                           1107 ; genPlus
                           1108 ; genPlusIncr
   03C6 11 A1 00           1109 	ld	de,#_map1 + 0 + 161
                           1110 ; genAssign (pointer)
   03C9 3E 00              1111 	ld	a,#0x00
   03CB 12                 1112 	ld	(de),a
                           1113 ; genPlus
                           1114 ; genPlusIncr
   03CC 11 A2 00           1115 	ld	de,#_map1 + 0 + 162
                           1116 ; genAssign (pointer)
   03CF 3E 00              1117 	ld	a,#0x00
   03D1 12                 1118 	ld	(de),a
                           1119 ; genPlus
                           1120 ; genPlusIncr
   03D2 11 A3 00           1121 	ld	de,#_map1 + 0 + 163
                           1122 ; genAssign (pointer)
   03D5 3E 0A              1123 	ld	a,#0x0A
   03D7 12                 1124 	ld	(de),a
                           1125 ; genPlus
                           1126 ; genPlusIncr
   03D8 11 A4 00           1127 	ld	de,#_map1 + 0 + 164
                           1128 ; genAssign (pointer)
   03DB 3E 00              1129 	ld	a,#0x00
   03DD 12                 1130 	ld	(de),a
                           1131 ; genPlus
                           1132 ; genPlusIncr
   03DE 11 A5 00           1133 	ld	de,#_map1 + 0 + 165
                           1134 ; genAssign (pointer)
   03E1 3E 0A              1135 	ld	a,#0x0A
   03E3 12                 1136 	ld	(de),a
                           1137 ; genPlus
                           1138 ; genPlusIncr
   03E4 11 A6 00           1139 	ld	de,#_map1 + 0 + 166
                           1140 ; genAssign (pointer)
   03E7 3E 00              1141 	ld	a,#0x00
   03E9 12                 1142 	ld	(de),a
                           1143 ; genPlus
                           1144 ; genPlusIncr
   03EA 11 A7 00           1145 	ld	de,#_map1 + 0 + 167
                           1146 ; genAssign (pointer)
   03ED 3E 00              1147 	ld	a,#0x00
   03EF 12                 1148 	ld	(de),a
                           1149 ; genPlus
                           1150 ; genPlusIncr
   03F0 11 A8 00           1151 	ld	de,#_map1 + 0 + 168
                           1152 ; genAssign (pointer)
   03F3 3E 00              1153 	ld	a,#0x00
   03F5 12                 1154 	ld	(de),a
                           1155 ; genPlus
                           1156 ; genPlusIncr
   03F6 11 A9 00           1157 	ld	de,#_map1 + 0 + 169
                           1158 ; genAssign (pointer)
   03F9 3E 00              1159 	ld	a,#0x00
   03FB 12                 1160 	ld	(de),a
                           1161 ; genPlus
                           1162 ; genPlusIncr
   03FC 11 AA 00           1163 	ld	de,#_map1 + 0 + 170
                           1164 ; genAssign (pointer)
   03FF 3E 00              1165 	ld	a,#0x00
   0401 12                 1166 	ld	(de),a
                           1167 ; genPlus
                           1168 ; genPlusIncr
   0402 11 AB 00           1169 	ld	de,#_map1 + 0 + 171
                           1170 ; genAssign (pointer)
   0405 3E 00              1171 	ld	a,#0x00
   0407 12                 1172 	ld	(de),a
                           1173 ; genPlus
                           1174 ; genPlusIncr
   0408 11 AC 00           1175 	ld	de,#_map1 + 0 + 172
                           1176 ; genAssign (pointer)
   040B 3E 00              1177 	ld	a,#0x00
   040D 12                 1178 	ld	(de),a
                           1179 ; genPlus
                           1180 ; genPlusIncr
   040E 11 AD 00           1181 	ld	de,#_map1 + 0 + 173
                           1182 ; genAssign (pointer)
   0411 3E 0A              1183 	ld	a,#0x0A
   0413 12                 1184 	ld	(de),a
                           1185 ; genPlus
                           1186 ; genPlusIncr
   0414 11 AE 00           1187 	ld	de,#_map1 + 0 + 174
                           1188 ; genAssign (pointer)
   0417 3E 00              1189 	ld	a,#0x00
   0419 12                 1190 	ld	(de),a
                           1191 ; genPlus
                           1192 ; genPlusIncr
   041A 11 AF 00           1193 	ld	de,#_map1 + 0 + 175
                           1194 ; genAssign (pointer)
   041D 3E 0A              1195 	ld	a,#0x0A
   041F 12                 1196 	ld	(de),a
                           1197 ; genPlus
                           1198 ; genPlusIncr
   0420 11 B0 00           1199 	ld	de,#_map1 + 0 + 176
                           1200 ; genAssign (pointer)
   0423 3E 00              1201 	ld	a,#0x00
   0425 12                 1202 	ld	(de),a
                           1203 ; genPlus
                           1204 ; genPlusIncr
   0426 11 B1 00           1205 	ld	de,#_map1 + 0 + 177
                           1206 ; genAssign (pointer)
   0429 3E 0A              1207 	ld	a,#0x0A
   042B 12                 1208 	ld	(de),a
                           1209 ; genPlus
                           1210 ; genPlusIncr
   042C 11 B2 00           1211 	ld	de,#_map1 + 0 + 178
                           1212 ; genAssign (pointer)
   042F 3E 00              1213 	ld	a,#0x00
   0431 12                 1214 	ld	(de),a
                           1215 ; genPlus
                           1216 ; genPlusIncr
   0432 11 B3 00           1217 	ld	de,#_map1 + 0 + 179
                           1218 ; genAssign (pointer)
   0435 3E 0A              1219 	ld	a,#0x0A
   0437 12                 1220 	ld	(de),a
                           1221 ; genPlus
                           1222 ; genPlusIncr
   0438 11 B4 00           1223 	ld	de,#_map1 + 0 + 180
                           1224 ; genAssign (pointer)
   043B 3E 0A              1225 	ld	a,#0x0A
   043D 12                 1226 	ld	(de),a
                           1227 ; genPlus
                           1228 ; genPlusIncr
   043E 11 B5 00           1229 	ld	de,#_map1 + 0 + 181
                           1230 ; genAssign (pointer)
   0441 3E 0A              1231 	ld	a,#0x0A
   0443 12                 1232 	ld	(de),a
                           1233 ; genPlus
                           1234 ; genPlusIncr
   0444 11 B6 00           1235 	ld	de,#_map1 + 0 + 182
                           1236 ; genAssign (pointer)
   0447 3E 0A              1237 	ld	a,#0x0A
   0449 12                 1238 	ld	(de),a
                           1239 ; genPlus
                           1240 ; genPlusIncr
   044A 11 B7 00           1241 	ld	de,#_map1 + 0 + 183
                           1242 ; genAssign (pointer)
   044D 3E 0A              1243 	ld	a,#0x0A
   044F 12                 1244 	ld	(de),a
                           1245 ; genPlus
                           1246 ; genPlusIncr
   0450 11 B8 00           1247 	ld	de,#_map1 + 0 + 184
                           1248 ; genAssign (pointer)
   0453 3E 00              1249 	ld	a,#0x00
   0455 12                 1250 	ld	(de),a
                           1251 ; genPlus
                           1252 ; genPlusIncr
   0456 11 B9 00           1253 	ld	de,#_map1 + 0 + 185
                           1254 ; genAssign (pointer)
   0459 3E 0A              1255 	ld	a,#0x0A
   045B 12                 1256 	ld	(de),a
                           1257 ; genPlus
                           1258 ; genPlusIncr
   045C 11 BA 00           1259 	ld	de,#_map1 + 0 + 186
                           1260 ; genAssign (pointer)
   045F 3E 00              1261 	ld	a,#0x00
   0461 12                 1262 	ld	(de),a
                           1263 ; genPlus
                           1264 ; genPlusIncr
   0462 11 BB 00           1265 	ld	de,#_map1 + 0 + 187
                           1266 ; genAssign (pointer)
   0465 3E 00              1267 	ld	a,#0x00
   0467 12                 1268 	ld	(de),a
                           1269 ; genPlus
                           1270 ; genPlusIncr
   0468 11 BC 00           1271 	ld	de,#_map1 + 0 + 188
                           1272 ; genAssign (pointer)
   046B 3E 00              1273 	ld	a,#0x00
   046D 12                 1274 	ld	(de),a
                           1275 ; genPlus
                           1276 ; genPlusIncr
   046E 11 BD 00           1277 	ld	de,#_map1 + 0 + 189
                           1278 ; genAssign (pointer)
   0471 3E 00              1279 	ld	a,#0x00
   0473 12                 1280 	ld	(de),a
                           1281 ; genPlus
                           1282 ; genPlusIncr
   0474 11 BE 00           1283 	ld	de,#_map1 + 0 + 190
                           1284 ; genAssign (pointer)
   0477 3E 00              1285 	ld	a,#0x00
   0479 12                 1286 	ld	(de),a
                           1287 ; genPlus
                           1288 ; genPlusIncr
   047A 11 BF 00           1289 	ld	de,#_map1 + 0 + 191
                           1290 ; genAssign (pointer)
   047D 3E 00              1291 	ld	a,#0x00
   047F 12                 1292 	ld	(de),a
                           1293 ; genPlus
                           1294 ; genPlusIncr
   0480 11 C0 00           1295 	ld	de,#_map1 + 0 + 192
                           1296 ; genAssign (pointer)
   0483 3E 00              1297 	ld	a,#0x00
   0485 12                 1298 	ld	(de),a
                           1299 ; genPlus
                           1300 ; genPlusIncr
   0486 11 C1 00           1301 	ld	de,#_map1 + 0 + 193
                           1302 ; genAssign (pointer)
   0489 3E 0A              1303 	ld	a,#0x0A
   048B 12                 1304 	ld	(de),a
                           1305 ; genPlus
                           1306 ; genPlusIncr
   048C 11 C2 00           1307 	ld	de,#_map1 + 0 + 194
                           1308 ; genAssign (pointer)
   048F 3E 00              1309 	ld	a,#0x00
   0491 12                 1310 	ld	(de),a
                           1311 ; genPlus
                           1312 ; genPlusIncr
   0492 11 C3 00           1313 	ld	de,#_map1 + 0 + 195
                           1314 ; genAssign (pointer)
   0495 3E 00              1315 	ld	a,#0x00
   0497 12                 1316 	ld	(de),a
                           1317 ; genPlus
                           1318 ; genPlusIncr
   0498 11 C4 00           1319 	ld	de,#_map1 + 0 + 196
                           1320 ; genAssign (pointer)
   049B 3E 00              1321 	ld	a,#0x00
   049D 12                 1322 	ld	(de),a
                           1323 ; genPlus
                           1324 ; genPlusIncr
   049E 11 C5 00           1325 	ld	de,#_map1 + 0 + 197
                           1326 ; genAssign (pointer)
   04A1 3E 0A              1327 	ld	a,#0x0A
   04A3 12                 1328 	ld	(de),a
                           1329 ; genPlus
                           1330 ; genPlusIncr
   04A4 11 C6 00           1331 	ld	de,#_map1 + 0 + 198
                           1332 ; genAssign (pointer)
   04A7 3E 00              1333 	ld	a,#0x00
   04A9 12                 1334 	ld	(de),a
                           1335 ; genPlus
                           1336 ; genPlusIncr
   04AA 11 C7 00           1337 	ld	de,#_map1 + 0 + 199
                           1338 ; genAssign (pointer)
   04AD 3E 0A              1339 	ld	a,#0x0A
   04AF 12                 1340 	ld	(de),a
                           1341 ; genPlus
                           1342 ; genPlusIncr
   04B0 11 C8 00           1343 	ld	de,#_map1 + 0 + 200
                           1344 ; genAssign (pointer)
   04B3 3E 0A              1345 	ld	a,#0x0A
   04B5 12                 1346 	ld	(de),a
                           1347 ; genPlus
                           1348 ; genPlusIncr
   04B6 11 C9 00           1349 	ld	de,#_map1 + 0 + 201
                           1350 ; genAssign (pointer)
   04B9 3E 00              1351 	ld	a,#0x00
   04BB 12                 1352 	ld	(de),a
                           1353 ; genPlus
                           1354 ; genPlusIncr
   04BC 11 CA 00           1355 	ld	de,#_map1 + 0 + 202
                           1356 ; genAssign (pointer)
   04BF 3E 00              1357 	ld	a,#0x00
   04C1 12                 1358 	ld	(de),a
                           1359 ; genPlus
                           1360 ; genPlusIncr
   04C2 11 CB 00           1361 	ld	de,#_map1 + 0 + 203
                           1362 ; genAssign (pointer)
   04C5 3E 00              1363 	ld	a,#0x00
   04C7 12                 1364 	ld	(de),a
                           1365 ; genPlus
                           1366 ; genPlusIncr
   04C8 11 CC 00           1367 	ld	de,#_map1 + 0 + 204
                           1368 ; genAssign (pointer)
   04CB 3E 00              1369 	ld	a,#0x00
   04CD 12                 1370 	ld	(de),a
                           1371 ; genPlus
                           1372 ; genPlusIncr
   04CE 11 CD 00           1373 	ld	de,#_map1 + 0 + 205
                           1374 ; genAssign (pointer)
   04D1 3E 0A              1375 	ld	a,#0x0A
   04D3 12                 1376 	ld	(de),a
                           1377 ; genPlus
                           1378 ; genPlusIncr
   04D4 11 CE 00           1379 	ld	de,#_map1 + 0 + 206
                           1380 ; genAssign (pointer)
   04D7 3E 0A              1381 	ld	a,#0x0A
   04D9 12                 1382 	ld	(de),a
                           1383 ; genPlus
                           1384 ; genPlusIncr
   04DA 11 CF 00           1385 	ld	de,#_map1 + 0 + 207
                           1386 ; genAssign (pointer)
   04DD 3E 0A              1387 	ld	a,#0x0A
   04DF 12                 1388 	ld	(de),a
                           1389 ; genPlus
                           1390 ; genPlusIncr
   04E0 11 D0 00           1391 	ld	de,#_map1 + 0 + 208
                           1392 ; genAssign (pointer)
   04E3 3E 0A              1393 	ld	a,#0x0A
   04E5 12                 1394 	ld	(de),a
                           1395 ; genPlus
                           1396 ; genPlusIncr
   04E6 11 D1 00           1397 	ld	de,#_map1 + 0 + 209
                           1398 ; genAssign (pointer)
   04E9 3E 0A              1399 	ld	a,#0x0A
   04EB 12                 1400 	ld	(de),a
                           1401 ; genPlus
                           1402 ; genPlusIncr
   04EC 11 D2 00           1403 	ld	de,#_map1 + 0 + 210
                           1404 ; genAssign (pointer)
   04EF 3E 0A              1405 	ld	a,#0x0A
   04F1 12                 1406 	ld	(de),a
                           1407 ; genPlus
                           1408 ; genPlusIncr
   04F2 11 D3 00           1409 	ld	de,#_map1 + 0 + 211
                           1410 ; genAssign (pointer)
   04F5 3E 0A              1411 	ld	a,#0x0A
   04F7 12                 1412 	ld	(de),a
                           1413 ; genPlus
                           1414 ; genPlusIncr
   04F8 11 D4 00           1415 	ld	de,#_map1 + 0 + 212
                           1416 ; genAssign (pointer)
   04FB 3E 0A              1417 	ld	a,#0x0A
   04FD 12                 1418 	ld	(de),a
                           1419 ; genPlus
                           1420 ; genPlusIncr
   04FE 11 D5 00           1421 	ld	de,#_map1 + 0 + 213
                           1422 ; genAssign (pointer)
   0501 3E 00              1423 	ld	a,#0x00
   0503 12                 1424 	ld	(de),a
                           1425 ; genPlus
                           1426 ; genPlusIncr
   0504 11 D6 00           1427 	ld	de,#_map1 + 0 + 214
                           1428 ; genAssign (pointer)
   0507 3E 00              1429 	ld	a,#0x00
   0509 12                 1430 	ld	(de),a
                           1431 ; genPlus
                           1432 ; genPlusIncr
   050A 11 D7 00           1433 	ld	de,#_map1 + 0 + 215
                           1434 ; genAssign (pointer)
   050D 3E 00              1435 	ld	a,#0x00
   050F 12                 1436 	ld	(de),a
                           1437 ; genPlus
                           1438 ; genPlusIncr
   0510 11 D8 00           1439 	ld	de,#_map1 + 0 + 216
                           1440 ; genAssign (pointer)
   0513 3E 00              1441 	ld	a,#0x00
   0515 12                 1442 	ld	(de),a
                           1443 ; genPlus
                           1444 ; genPlusIncr
   0516 11 D9 00           1445 	ld	de,#_map1 + 0 + 217
                           1446 ; genAssign (pointer)
   0519 3E 0A              1447 	ld	a,#0x0A
   051B 12                 1448 	ld	(de),a
                           1449 ; genPlus
                           1450 ; genPlusIncr
   051C 11 DA 00           1451 	ld	de,#_map1 + 0 + 218
                           1452 ; genAssign (pointer)
   051F 3E 00              1453 	ld	a,#0x00
   0521 12                 1454 	ld	(de),a
                           1455 ; genPlus
                           1456 ; genPlusIncr
   0522 11 DB 00           1457 	ld	de,#_map1 + 0 + 219
                           1458 ; genAssign (pointer)
   0525 3E 0A              1459 	ld	a,#0x0A
   0527 12                 1460 	ld	(de),a
                           1461 ; genPlus
                           1462 ; genPlusIncr
   0528 11 DC 00           1463 	ld	de,#_map1 + 0 + 220
                           1464 ; genAssign (pointer)
   052B 3E 0A              1465 	ld	a,#0x0A
   052D 12                 1466 	ld	(de),a
                           1467 ; genPlus
                           1468 ; genPlusIncr
   052E 11 DD 00           1469 	ld	de,#_map1 + 0 + 221
                           1470 ; genAssign (pointer)
   0531 3E 00              1471 	ld	a,#0x00
   0533 12                 1472 	ld	(de),a
                           1473 ; genPlus
                           1474 ; genPlusIncr
   0534 11 DE 00           1475 	ld	de,#_map1 + 0 + 222
                           1476 ; genAssign (pointer)
   0537 3E 00              1477 	ld	a,#0x00
   0539 12                 1478 	ld	(de),a
                           1479 ; genPlus
                           1480 ; genPlusIncr
   053A 11 DF 00           1481 	ld	de,#_map1 + 0 + 223
                           1482 ; genAssign (pointer)
   053D 3E 00              1483 	ld	a,#0x00
   053F 12                 1484 	ld	(de),a
                           1485 ; genPlus
                           1486 ; genPlusIncr
   0540 11 E0 00           1487 	ld	de,#_map1 + 0 + 224
                           1488 ; genAssign (pointer)
   0543 3E 00              1489 	ld	a,#0x00
   0545 12                 1490 	ld	(de),a
                           1491 ; genPlus
                           1492 ; genPlusIncr
   0546 11 E1 00           1493 	ld	de,#_map1 + 0 + 225
                           1494 ; genAssign (pointer)
   0549 3E 00              1495 	ld	a,#0x00
   054B 12                 1496 	ld	(de),a
                           1497 ; genPlus
                           1498 ; genPlusIncr
   054C 11 E2 00           1499 	ld	de,#_map1 + 0 + 226
                           1500 ; genAssign (pointer)
   054F 3E 00              1501 	ld	a,#0x00
   0551 12                 1502 	ld	(de),a
                           1503 ; genPlus
                           1504 ; genPlusIncr
   0552 11 E3 00           1505 	ld	de,#_map1 + 0 + 227
                           1506 ; genAssign (pointer)
   0555 3E 00              1507 	ld	a,#0x00
   0557 12                 1508 	ld	(de),a
                           1509 ; genPlus
                           1510 ; genPlusIncr
   0558 11 E4 00           1511 	ld	de,#_map1 + 0 + 228
                           1512 ; genAssign (pointer)
   055B 3E 00              1513 	ld	a,#0x00
   055D 12                 1514 	ld	(de),a
                           1515 ; genPlus
                           1516 ; genPlusIncr
   055E 11 E5 00           1517 	ld	de,#_map1 + 0 + 229
                           1518 ; genAssign (pointer)
   0561 3E 00              1519 	ld	a,#0x00
   0563 12                 1520 	ld	(de),a
                           1521 ; genPlus
                           1522 ; genPlusIncr
   0564 11 E6 00           1523 	ld	de,#_map1 + 0 + 230
                           1524 ; genAssign (pointer)
   0567 3E 00              1525 	ld	a,#0x00
   0569 12                 1526 	ld	(de),a
                           1527 ; genPlus
                           1528 ; genPlusIncr
   056A 11 E7 00           1529 	ld	de,#_map1 + 0 + 231
                           1530 ; genAssign (pointer)
   056D 3E 00              1531 	ld	a,#0x00
   056F 12                 1532 	ld	(de),a
                           1533 ; genPlus
                           1534 ; genPlusIncr
   0570 11 E8 00           1535 	ld	de,#_map1 + 0 + 232
                           1536 ; genAssign (pointer)
   0573 3E 0A              1537 	ld	a,#0x0A
   0575 12                 1538 	ld	(de),a
                           1539 ; genPlus
                           1540 ; genPlusIncr
   0576 11 E9 00           1541 	ld	de,#_map1 + 0 + 233
                           1542 ; genAssign (pointer)
   0579 3E 00              1543 	ld	a,#0x00
   057B 12                 1544 	ld	(de),a
                           1545 ; genPlus
                           1546 ; genPlusIncr
   057C 11 EA 00           1547 	ld	de,#_map1 + 0 + 234
                           1548 ; genAssign (pointer)
   057F 3E 00              1549 	ld	a,#0x00
   0581 12                 1550 	ld	(de),a
                           1551 ; genPlus
                           1552 ; genPlusIncr
   0582 11 EB 00           1553 	ld	de,#_map1 + 0 + 235
                           1554 ; genAssign (pointer)
   0585 3E 0A              1555 	ld	a,#0x0A
   0587 12                 1556 	ld	(de),a
                           1557 ; genPlus
                           1558 ; genPlusIncr
   0588 11 EC 00           1559 	ld	de,#_map1 + 0 + 236
                           1560 ; genAssign (pointer)
   058B 3E 00              1561 	ld	a,#0x00
   058D 12                 1562 	ld	(de),a
                           1563 ; genPlus
                           1564 ; genPlusIncr
   058E 11 ED 00           1565 	ld	de,#_map1 + 0 + 237
                           1566 ; genAssign (pointer)
   0591 3E 0A              1567 	ld	a,#0x0A
   0593 12                 1568 	ld	(de),a
                           1569 ; genPlus
                           1570 ; genPlusIncr
   0594 11 EE 00           1571 	ld	de,#_map1 + 0 + 238
                           1572 ; genAssign (pointer)
   0597 3E 00              1573 	ld	a,#0x00
   0599 12                 1574 	ld	(de),a
                           1575 ; genPlus
                           1576 ; genPlusIncr
   059A 11 EF 00           1577 	ld	de,#_map1 + 0 + 239
                           1578 ; genAssign (pointer)
   059D 3E 0A              1579 	ld	a,#0x0A
   059F 12                 1580 	ld	(de),a
                           1581 ; genPlus
                           1582 ; genPlusIncr
   05A0 11 F0 00           1583 	ld	de,#_map1 + 0 + 240
                           1584 ; genAssign (pointer)
   05A3 3E 0A              1585 	ld	a,#0x0A
   05A5 12                 1586 	ld	(de),a
                           1587 ; genPlus
                           1588 ; genPlusIncr
   05A6 11 F1 00           1589 	ld	de,#_map1 + 0 + 241
                           1590 ; genAssign (pointer)
   05A9 3E 00              1591 	ld	a,#0x00
   05AB 12                 1592 	ld	(de),a
                           1593 ; genPlus
                           1594 ; genPlusIncr
   05AC 11 F2 00           1595 	ld	de,#_map1 + 0 + 242
                           1596 ; genAssign (pointer)
   05AF 3E 00              1597 	ld	a,#0x00
   05B1 12                 1598 	ld	(de),a
                           1599 ; genPlus
                           1600 ; genPlusIncr
   05B2 11 F3 00           1601 	ld	de,#_map1 + 0 + 243
                           1602 ; genAssign (pointer)
   05B5 3E 00              1603 	ld	a,#0x00
   05B7 12                 1604 	ld	(de),a
                           1605 ; genPlus
                           1606 ; genPlusIncr
   05B8 11 F4 00           1607 	ld	de,#_map1 + 0 + 244
                           1608 ; genAssign (pointer)
   05BB 3E 00              1609 	ld	a,#0x00
   05BD 12                 1610 	ld	(de),a
                           1611 ; genPlus
                           1612 ; genPlusIncr
   05BE 11 F5 00           1613 	ld	de,#_map1 + 0 + 245
                           1614 ; genAssign (pointer)
   05C1 3E 00              1615 	ld	a,#0x00
   05C3 12                 1616 	ld	(de),a
                           1617 ; genPlus
                           1618 ; genPlusIncr
   05C4 11 F6 00           1619 	ld	de,#_map1 + 0 + 246
                           1620 ; genAssign (pointer)
   05C7 3E 00              1621 	ld	a,#0x00
   05C9 12                 1622 	ld	(de),a
                           1623 ; genPlus
                           1624 ; genPlusIncr
   05CA 11 F7 00           1625 	ld	de,#_map1 + 0 + 247
                           1626 ; genAssign (pointer)
   05CD 3E 00              1627 	ld	a,#0x00
   05CF 12                 1628 	ld	(de),a
                           1629 ; genPlus
                           1630 ; genPlusIncr
   05D0 11 F8 00           1631 	ld	de,#_map1 + 0 + 248
                           1632 ; genAssign (pointer)
   05D3 3E 00              1633 	ld	a,#0x00
   05D5 12                 1634 	ld	(de),a
                           1635 ; genPlus
                           1636 ; genPlusIncr
   05D6 11 F9 00           1637 	ld	de,#_map1 + 0 + 249
                           1638 ; genAssign (pointer)
   05D9 3E 00              1639 	ld	a,#0x00
   05DB 12                 1640 	ld	(de),a
                           1641 ; genPlus
                           1642 ; genPlusIncr
   05DC 11 FA 00           1643 	ld	de,#_map1 + 0 + 250
                           1644 ; genAssign (pointer)
   05DF 3E 00              1645 	ld	a,#0x00
   05E1 12                 1646 	ld	(de),a
                           1647 ; genPlus
                           1648 ; genPlusIncr
   05E2 11 FB 00           1649 	ld	de,#_map1 + 0 + 251
                           1650 ; genAssign (pointer)
   05E5 3E 00              1651 	ld	a,#0x00
   05E7 12                 1652 	ld	(de),a
                           1653 ; genPlus
                           1654 ; genPlusIncr
   05E8 11 FC 00           1655 	ld	de,#_map1 + 0 + 252
                           1656 ; genAssign (pointer)
   05EB 3E 0A              1657 	ld	a,#0x0A
   05ED 12                 1658 	ld	(de),a
                           1659 ; genPlus
                           1660 ; genPlusIncr
   05EE 11 FD 00           1661 	ld	de,#_map1 + 0 + 253
                           1662 ; genAssign (pointer)
   05F1 3E 00              1663 	ld	a,#0x00
   05F3 12                 1664 	ld	(de),a
                           1665 ; genPlus
                           1666 ; genPlusIncr
   05F4 11 FE 00           1667 	ld	de,#_map1 + 0 + 254
                           1668 ; genAssign (pointer)
   05F7 3E 00              1669 	ld	a,#0x00
   05F9 12                 1670 	ld	(de),a
                           1671 ; genPlus
                           1672 ; genPlusIncr
   05FA 11 FF 00           1673 	ld	de,#_map1 + 0 + 255
                           1674 ; genAssign (pointer)
   05FD 3E 0A              1675 	ld	a,#0x0A
   05FF 12                 1676 	ld	(de),a
                           1677 ; genPlus
                           1678 ; genPlusIncr
   0600 11 00 01           1679 	ld	de,#_map1 + 0 + 256
                           1680 ; genAssign (pointer)
   0603 3E 00              1681 	ld	a,#0x00
   0605 12                 1682 	ld	(de),a
                           1683 ; genPlus
                           1684 ; genPlusIncr
   0606 11 01 01           1685 	ld	de,#_map1 + 0 + 257
                           1686 ; genAssign (pointer)
   0609 3E 0A              1687 	ld	a,#0x0A
   060B 12                 1688 	ld	(de),a
                           1689 ; genPlus
                           1690 ; genPlusIncr
   060C 11 02 01           1691 	ld	de,#_map1 + 0 + 258
                           1692 ; genAssign (pointer)
   060F 3E 00              1693 	ld	a,#0x00
   0611 12                 1694 	ld	(de),a
                           1695 ; genPlus
                           1696 ; genPlusIncr
   0612 11 03 01           1697 	ld	de,#_map1 + 0 + 259
                           1698 ; genAssign (pointer)
   0615 3E 0A              1699 	ld	a,#0x0A
   0617 12                 1700 	ld	(de),a
                           1701 ; genPlus
                           1702 ; genPlusIncr
   0618 11 04 01           1703 	ld	de,#_map1 + 0 + 260
                           1704 ; genAssign (pointer)
   061B 3E 0A              1705 	ld	a,#0x0A
   061D 12                 1706 	ld	(de),a
                           1707 ; genPlus
                           1708 ; genPlusIncr
   061E 11 05 01           1709 	ld	de,#_map1 + 0 + 261
                           1710 ; genAssign (pointer)
   0621 3E 0A              1711 	ld	a,#0x0A
   0623 12                 1712 	ld	(de),a
                           1713 ; genPlus
                           1714 ; genPlusIncr
   0624 11 06 01           1715 	ld	de,#_map1 + 0 + 262
                           1716 ; genAssign (pointer)
   0627 3E 0A              1717 	ld	a,#0x0A
   0629 12                 1718 	ld	(de),a
                           1719 ; genPlus
                           1720 ; genPlusIncr
   062A 11 07 01           1721 	ld	de,#_map1 + 0 + 263
                           1722 ; genAssign (pointer)
   062D 3E 00              1723 	ld	a,#0x00
   062F 12                 1724 	ld	(de),a
                           1725 ; genPlus
                           1726 ; genPlusIncr
   0630 11 08 01           1727 	ld	de,#_map1 + 0 + 264
                           1728 ; genAssign (pointer)
   0633 3E 0A              1729 	ld	a,#0x0A
   0635 12                 1730 	ld	(de),a
                           1731 ; genPlus
                           1732 ; genPlusIncr
   0636 11 09 01           1733 	ld	de,#_map1 + 0 + 265
                           1734 ; genAssign (pointer)
   0639 3E 0A              1735 	ld	a,#0x0A
   063B 12                 1736 	ld	(de),a
                           1737 ; genPlus
                           1738 ; genPlusIncr
   063C 11 0A 01           1739 	ld	de,#_map1 + 0 + 266
                           1740 ; genAssign (pointer)
   063F 3E 00              1741 	ld	a,#0x00
   0641 12                 1742 	ld	(de),a
                           1743 ; genPlus
                           1744 ; genPlusIncr
   0642 11 0B 01           1745 	ld	de,#_map1 + 0 + 267
                           1746 ; genAssign (pointer)
   0645 3E 0A              1747 	ld	a,#0x0A
   0647 12                 1748 	ld	(de),a
                           1749 ; genPlus
                           1750 ; genPlusIncr
   0648 11 0C 01           1751 	ld	de,#_map1 + 0 + 268
                           1752 ; genAssign (pointer)
   064B 3E 0A              1753 	ld	a,#0x0A
   064D 12                 1754 	ld	(de),a
                           1755 ; genPlus
                           1756 ; genPlusIncr
   064E 11 0D 01           1757 	ld	de,#_map1 + 0 + 269
                           1758 ; genAssign (pointer)
   0651 3E 0A              1759 	ld	a,#0x0A
   0653 12                 1760 	ld	(de),a
                           1761 ; genPlus
                           1762 ; genPlusIncr
   0654 11 0E 01           1763 	ld	de,#_map1 + 0 + 270
                           1764 ; genAssign (pointer)
   0657 3E 0A              1765 	ld	a,#0x0A
   0659 12                 1766 	ld	(de),a
                           1767 ; genPlus
                           1768 ; genPlusIncr
   065A 11 0F 01           1769 	ld	de,#_map1 + 0 + 271
                           1770 ; genAssign (pointer)
   065D 3E 00              1771 	ld	a,#0x00
   065F 12                 1772 	ld	(de),a
                           1773 ; genPlus
                           1774 ; genPlusIncr
   0660 11 10 01           1775 	ld	de,#_map1 + 0 + 272
                           1776 ; genAssign (pointer)
   0663 3E 00              1777 	ld	a,#0x00
   0665 12                 1778 	ld	(de),a
                           1779 ; genPlus
                           1780 ; genPlusIncr
   0666 11 11 01           1781 	ld	de,#_map1 + 0 + 273
                           1782 ; genAssign (pointer)
   0669 3E 00              1783 	ld	a,#0x00
   066B 12                 1784 	ld	(de),a
                           1785 ; genPlus
                           1786 ; genPlusIncr
   066C 11 12 01           1787 	ld	de,#_map1 + 0 + 274
                           1788 ; genAssign (pointer)
   066F 3E 00              1789 	ld	a,#0x00
   0671 12                 1790 	ld	(de),a
                           1791 ; genPlus
                           1792 ; genPlusIncr
   0672 11 13 01           1793 	ld	de,#_map1 + 0 + 275
                           1794 ; genAssign (pointer)
   0675 3E 0A              1795 	ld	a,#0x0A
   0677 12                 1796 	ld	(de),a
                           1797 ; genPlus
                           1798 ; genPlusIncr
   0678 11 14 01           1799 	ld	de,#_map1 + 0 + 276
                           1800 ; genAssign (pointer)
   067B 3E 00              1801 	ld	a,#0x00
   067D 12                 1802 	ld	(de),a
                           1803 ; genPlus
                           1804 ; genPlusIncr
   067E 11 15 01           1805 	ld	de,#_map1 + 0 + 277
                           1806 ; genAssign (pointer)
   0681 3E 0A              1807 	ld	a,#0x0A
   0683 12                 1808 	ld	(de),a
                           1809 ; genPlus
                           1810 ; genPlusIncr
   0684 11 16 01           1811 	ld	de,#_map1 + 0 + 278
                           1812 ; genAssign (pointer)
   0687 3E 00              1813 	ld	a,#0x00
   0689 12                 1814 	ld	(de),a
                           1815 ; genPlus
                           1816 ; genPlusIncr
   068A 11 17 01           1817 	ld	de,#_map1 + 0 + 279
                           1818 ; genAssign (pointer)
   068D 3E 0A              1819 	ld	a,#0x0A
   068F 12                 1820 	ld	(de),a
                           1821 ; genPlus
                           1822 ; genPlusIncr
   0690 11 18 01           1823 	ld	de,#_map1 + 0 + 280
                           1824 ; genAssign (pointer)
   0693 3E 0A              1825 	ld	a,#0x0A
   0695 12                 1826 	ld	(de),a
                           1827 ; genPlus
                           1828 ; genPlusIncr
   0696 11 19 01           1829 	ld	de,#_map1 + 0 + 281
                           1830 ; genAssign (pointer)
   0699 3E 00              1831 	ld	a,#0x00
   069B 12                 1832 	ld	(de),a
                           1833 ; genPlus
                           1834 ; genPlusIncr
   069C 11 1A 01           1835 	ld	de,#_map1 + 0 + 282
                           1836 ; genAssign (pointer)
   069F 3E 00              1837 	ld	a,#0x00
   06A1 12                 1838 	ld	(de),a
                           1839 ; genPlus
                           1840 ; genPlusIncr
   06A2 11 1B 01           1841 	ld	de,#_map1 + 0 + 283
                           1842 ; genAssign (pointer)
   06A5 3E 00              1843 	ld	a,#0x00
   06A7 12                 1844 	ld	(de),a
                           1845 ; genPlus
                           1846 ; genPlusIncr
   06A8 11 1C 01           1847 	ld	de,#_map1 + 0 + 284
                           1848 ; genAssign (pointer)
   06AB 3E 00              1849 	ld	a,#0x00
   06AD 12                 1850 	ld	(de),a
                           1851 ; genPlus
                           1852 ; genPlusIncr
   06AE 11 1D 01           1853 	ld	de,#_map1 + 0 + 285
                           1854 ; genAssign (pointer)
   06B1 3E 00              1855 	ld	a,#0x00
   06B3 12                 1856 	ld	(de),a
                           1857 ; genPlus
                           1858 ; genPlusIncr
   06B4 11 1E 01           1859 	ld	de,#_map1 + 0 + 286
                           1860 ; genAssign (pointer)
   06B7 3E 00              1861 	ld	a,#0x00
   06B9 12                 1862 	ld	(de),a
                           1863 ; genPlus
                           1864 ; genPlusIncr
   06BA 11 1F 01           1865 	ld	de,#_map1 + 0 + 287
                           1866 ; genAssign (pointer)
   06BD 3E 00              1867 	ld	a,#0x00
   06BF 12                 1868 	ld	(de),a
                           1869 ; genPlus
                           1870 ; genPlusIncr
   06C0 11 20 01           1871 	ld	de,#_map1 + 0 + 288
                           1872 ; genAssign (pointer)
   06C3 3E 00              1873 	ld	a,#0x00
   06C5 12                 1874 	ld	(de),a
                           1875 ; genPlus
                           1876 ; genPlusIncr
   06C6 11 21 01           1877 	ld	de,#_map1 + 0 + 289
                           1878 ; genAssign (pointer)
   06C9 3E 00              1879 	ld	a,#0x00
   06CB 12                 1880 	ld	(de),a
                           1881 ; genPlus
                           1882 ; genPlusIncr
   06CC 11 22 01           1883 	ld	de,#_map1 + 0 + 290
                           1884 ; genAssign (pointer)
   06CF 3E 00              1885 	ld	a,#0x00
   06D1 12                 1886 	ld	(de),a
                           1887 ; genPlus
                           1888 ; genPlusIncr
   06D2 11 23 01           1889 	ld	de,#_map1 + 0 + 291
                           1890 ; genAssign (pointer)
   06D5 3E 00              1891 	ld	a,#0x00
   06D7 12                 1892 	ld	(de),a
                           1893 ; genPlus
                           1894 ; genPlusIncr
   06D8 11 24 01           1895 	ld	de,#_map1 + 0 + 292
                           1896 ; genAssign (pointer)
   06DB 3E 00              1897 	ld	a,#0x00
   06DD 12                 1898 	ld	(de),a
                           1899 ; genPlus
                           1900 ; genPlusIncr
   06DE 11 25 01           1901 	ld	de,#_map1 + 0 + 293
                           1902 ; genAssign (pointer)
   06E1 3E 00              1903 	ld	a,#0x00
   06E3 12                 1904 	ld	(de),a
                           1905 ; genPlus
                           1906 ; genPlusIncr
   06E4 11 26 01           1907 	ld	de,#_map1 + 0 + 294
                           1908 ; genAssign (pointer)
   06E7 3E 0A              1909 	ld	a,#0x0A
   06E9 12                 1910 	ld	(de),a
                           1911 ; genPlus
                           1912 ; genPlusIncr
   06EA 11 27 01           1913 	ld	de,#_map1 + 0 + 295
                           1914 ; genAssign (pointer)
   06ED 3E 0A              1915 	ld	a,#0x0A
   06EF 12                 1916 	ld	(de),a
                           1917 ; genPlus
                           1918 ; genPlusIncr
   06F0 11 28 01           1919 	ld	de,#_map1 + 0 + 296
                           1920 ; genAssign (pointer)
   06F3 3E 00              1921 	ld	a,#0x00
   06F5 12                 1922 	ld	(de),a
                           1923 ; genPlus
                           1924 ; genPlusIncr
   06F6 11 29 01           1925 	ld	de,#_map1 + 0 + 297
                           1926 ; genAssign (pointer)
   06F9 3E 0A              1927 	ld	a,#0x0A
   06FB 12                 1928 	ld	(de),a
                           1929 ; genPlus
                           1930 ; genPlusIncr
   06FC 11 2A 01           1931 	ld	de,#_map1 + 0 + 298
                           1932 ; genAssign (pointer)
   06FF 3E 00              1933 	ld	a,#0x00
   0701 12                 1934 	ld	(de),a
                           1935 ; genPlus
                           1936 ; genPlusIncr
   0702 11 2B 01           1937 	ld	de,#_map1 + 0 + 299
                           1938 ; genAssign (pointer)
   0705 3E 0A              1939 	ld	a,#0x0A
   0707 12                 1940 	ld	(de),a
                           1941 ; genPlus
                           1942 ; genPlusIncr
   0708 11 2C 01           1943 	ld	de,#_map1 + 0 + 300
                           1944 ; genAssign (pointer)
   070B 3E 0A              1945 	ld	a,#0x0A
   070D 12                 1946 	ld	(de),a
                           1947 ; genPlus
                           1948 ; genPlusIncr
   070E 11 2D 01           1949 	ld	de,#_map1 + 0 + 301
                           1950 ; genAssign (pointer)
   0711 3E 00              1951 	ld	a,#0x00
   0713 12                 1952 	ld	(de),a
                           1953 ; genPlus
                           1954 ; genPlusIncr
   0714 11 2E 01           1955 	ld	de,#_map1 + 0 + 302
                           1956 ; genAssign (pointer)
   0717 3E 0A              1957 	ld	a,#0x0A
   0719 12                 1958 	ld	(de),a
                           1959 ; genPlus
                           1960 ; genPlusIncr
   071A 11 2F 01           1961 	ld	de,#_map1 + 0 + 303
                           1962 ; genAssign (pointer)
   071D 3E 00              1963 	ld	a,#0x00
   071F 12                 1964 	ld	(de),a
                           1965 ; genPlus
                           1966 ; genPlusIncr
   0720 11 30 01           1967 	ld	de,#_map1 + 0 + 304
                           1968 ; genAssign (pointer)
   0723 3E 0A              1969 	ld	a,#0x0A
   0725 12                 1970 	ld	(de),a
                           1971 ; genPlus
                           1972 ; genPlusIncr
   0726 11 31 01           1973 	ld	de,#_map1 + 0 + 305
                           1974 ; genAssign (pointer)
   0729 3E 0A              1975 	ld	a,#0x0A
   072B 12                 1976 	ld	(de),a
                           1977 ; genPlus
                           1978 ; genPlusIncr
   072C 11 32 01           1979 	ld	de,#_map1 + 0 + 306
                           1980 ; genAssign (pointer)
   072F 3E 0A              1981 	ld	a,#0x0A
   0731 12                 1982 	ld	(de),a
                           1983 ; genPlus
                           1984 ; genPlusIncr
   0732 11 33 01           1985 	ld	de,#_map1 + 0 + 307
                           1986 ; genAssign (pointer)
   0735 3E 0A              1987 	ld	a,#0x0A
   0737 12                 1988 	ld	(de),a
                           1989 ; genPlus
                           1990 ; genPlusIncr
   0738 11 34 01           1991 	ld	de,#_map1 + 0 + 308
                           1992 ; genAssign (pointer)
   073B 3E 0A              1993 	ld	a,#0x0A
   073D 12                 1994 	ld	(de),a
                           1995 ; genPlus
                           1996 ; genPlusIncr
   073E 11 35 01           1997 	ld	de,#_map1 + 0 + 309
                           1998 ; genAssign (pointer)
   0741 3E 00              1999 	ld	a,#0x00
   0743 12                 2000 	ld	(de),a
                           2001 ; genPlus
                           2002 ; genPlusIncr
   0744 11 36 01           2003 	ld	de,#_map1 + 0 + 310
                           2004 ; genAssign (pointer)
   0747 3E 0A              2005 	ld	a,#0x0A
   0749 12                 2006 	ld	(de),a
                           2007 ; genPlus
                           2008 ; genPlusIncr
   074A 11 37 01           2009 	ld	de,#_map1 + 0 + 311
                           2010 ; genAssign (pointer)
   074D 3E 0A              2011 	ld	a,#0x0A
   074F 12                 2012 	ld	(de),a
                           2013 ; genPlus
                           2014 ; genPlusIncr
   0750 11 38 01           2015 	ld	de,#_map1 + 0 + 312
                           2016 ; genAssign (pointer)
   0753 3E 0A              2017 	ld	a,#0x0A
   0755 12                 2018 	ld	(de),a
                           2019 ; genPlus
                           2020 ; genPlusIncr
   0756 11 39 01           2021 	ld	de,#_map1 + 0 + 313
                           2022 ; genAssign (pointer)
   0759 3E 00              2023 	ld	a,#0x00
   075B 12                 2024 	ld	(de),a
                           2025 ; genPlus
                           2026 ; genPlusIncr
   075C 11 3A 01           2027 	ld	de,#_map1 + 0 + 314
                           2028 ; genAssign (pointer)
   075F 3E 00              2029 	ld	a,#0x00
   0761 12                 2030 	ld	(de),a
                           2031 ; genPlus
                           2032 ; genPlusIncr
   0762 11 3B 01           2033 	ld	de,#_map1 + 0 + 315
                           2034 ; genAssign (pointer)
   0765 3E 00              2035 	ld	a,#0x00
   0767 12                 2036 	ld	(de),a
                           2037 ; genPlus
                           2038 ; genPlusIncr
   0768 11 3C 01           2039 	ld	de,#_map1 + 0 + 316
                           2040 ; genAssign (pointer)
   076B 3E 00              2041 	ld	a,#0x00
   076D 12                 2042 	ld	(de),a
                           2043 ; genPlus
                           2044 ; genPlusIncr
   076E 11 3D 01           2045 	ld	de,#_map1 + 0 + 317
                           2046 ; genAssign (pointer)
   0771 3E 0A              2047 	ld	a,#0x0A
   0773 12                 2048 	ld	(de),a
                           2049 ; genPlus
                           2050 ; genPlusIncr
   0774 11 3E 01           2051 	ld	de,#_map1 + 0 + 318
                           2052 ; genAssign (pointer)
   0777 3E 00              2053 	ld	a,#0x00
   0779 12                 2054 	ld	(de),a
                           2055 ; genPlus
                           2056 ; genPlusIncr
   077A 11 3F 01           2057 	ld	de,#_map1 + 0 + 319
                           2058 ; genAssign (pointer)
   077D 3E 0A              2059 	ld	a,#0x0A
   077F 12                 2060 	ld	(de),a
                           2061 ; genPlus
                           2062 ; genPlusIncr
   0780 11 40 01           2063 	ld	de,#_map1 + 0 + 320
                           2064 ; genAssign (pointer)
   0783 3E 0A              2065 	ld	a,#0x0A
   0785 12                 2066 	ld	(de),a
                           2067 ; genPlus
                           2068 ; genPlusIncr
   0786 11 41 01           2069 	ld	de,#_map1 + 0 + 321
                           2070 ; genAssign (pointer)
   0789 3E 00              2071 	ld	a,#0x00
   078B 12                 2072 	ld	(de),a
                           2073 ; genPlus
                           2074 ; genPlusIncr
   078C 11 42 01           2075 	ld	de,#_map1 + 0 + 322
                           2076 ; genAssign (pointer)
   078F 3E 0A              2077 	ld	a,#0x0A
   0791 12                 2078 	ld	(de),a
                           2079 ; genPlus
                           2080 ; genPlusIncr
   0792 11 43 01           2081 	ld	de,#_map1 + 0 + 323
                           2082 ; genAssign (pointer)
   0795 3E 00              2083 	ld	a,#0x00
   0797 12                 2084 	ld	(de),a
                           2085 ; genPlus
                           2086 ; genPlusIncr
   0798 11 44 01           2087 	ld	de,#_map1 + 0 + 324
                           2088 ; genAssign (pointer)
   079B 3E 0A              2089 	ld	a,#0x0A
   079D 12                 2090 	ld	(de),a
                           2091 ; genPlus
                           2092 ; genPlusIncr
   079E 11 45 01           2093 	ld	de,#_map1 + 0 + 325
                           2094 ; genAssign (pointer)
   07A1 3E 0A              2095 	ld	a,#0x0A
   07A3 12                 2096 	ld	(de),a
                           2097 ; genPlus
                           2098 ; genPlusIncr
   07A4 11 46 01           2099 	ld	de,#_map1 + 0 + 326
                           2100 ; genAssign (pointer)
   07A7 3E 00              2101 	ld	a,#0x00
   07A9 12                 2102 	ld	(de),a
                           2103 ; genPlus
                           2104 ; genPlusIncr
   07AA 11 47 01           2105 	ld	de,#_map1 + 0 + 327
                           2106 ; genAssign (pointer)
   07AD 3E 00              2107 	ld	a,#0x00
   07AF 12                 2108 	ld	(de),a
                           2109 ; genPlus
                           2110 ; genPlusIncr
   07B0 11 48 01           2111 	ld	de,#_map1 + 0 + 328
                           2112 ; genAssign (pointer)
   07B3 3E 00              2113 	ld	a,#0x00
   07B5 12                 2114 	ld	(de),a
                           2115 ; genPlus
                           2116 ; genPlusIncr
   07B6 11 49 01           2117 	ld	de,#_map1 + 0 + 329
                           2118 ; genAssign (pointer)
   07B9 3E 00              2119 	ld	a,#0x00
   07BB 12                 2120 	ld	(de),a
                           2121 ; genPlus
                           2122 ; genPlusIncr
   07BC 11 4A 01           2123 	ld	de,#_map1 + 0 + 330
                           2124 ; genAssign (pointer)
   07BF 3E 0A              2125 	ld	a,#0x0A
   07C1 12                 2126 	ld	(de),a
                           2127 ; genPlus
                           2128 ; genPlusIncr
   07C2 11 4B 01           2129 	ld	de,#_map1 + 0 + 331
                           2130 ; genAssign (pointer)
   07C5 3E 00              2131 	ld	a,#0x00
   07C7 12                 2132 	ld	(de),a
                           2133 ; genPlus
                           2134 ; genPlusIncr
   07C8 11 4C 01           2135 	ld	de,#_map1 + 0 + 332
                           2136 ; genAssign (pointer)
   07CB 3E 0A              2137 	ld	a,#0x0A
   07CD 12                 2138 	ld	(de),a
                           2139 ; genPlus
                           2140 ; genPlusIncr
   07CE 11 4D 01           2141 	ld	de,#_map1 + 0 + 333
                           2142 ; genAssign (pointer)
   07D1 3E 0A              2143 	ld	a,#0x0A
   07D3 12                 2144 	ld	(de),a
                           2145 ; genPlus
                           2146 ; genPlusIncr
   07D4 11 4E 01           2147 	ld	de,#_map1 + 0 + 334
                           2148 ; genAssign (pointer)
   07D7 3E 0A              2149 	ld	a,#0x0A
   07D9 12                 2150 	ld	(de),a
                           2151 ; genPlus
                           2152 ; genPlusIncr
   07DA 11 4F 01           2153 	ld	de,#_map1 + 0 + 335
                           2154 ; genAssign (pointer)
   07DD 3E 0A              2155 	ld	a,#0x0A
   07DF 12                 2156 	ld	(de),a
                           2157 ; genPlus
                           2158 ; genPlusIncr
   07E0 11 50 01           2159 	ld	de,#_map1 + 0 + 336
                           2160 ; genAssign (pointer)
   07E3 3E 0A              2161 	ld	a,#0x0A
   07E5 12                 2162 	ld	(de),a
                           2163 ; genPlus
                           2164 ; genPlusIncr
   07E6 11 51 01           2165 	ld	de,#_map1 + 0 + 337
                           2166 ; genAssign (pointer)
   07E9 3E 0A              2167 	ld	a,#0x0A
   07EB 12                 2168 	ld	(de),a
                           2169 ; genPlus
                           2170 ; genPlusIncr
   07EC 11 52 01           2171 	ld	de,#_map1 + 0 + 338
                           2172 ; genAssign (pointer)
   07EF 3E 00              2173 	ld	a,#0x00
   07F1 12                 2174 	ld	(de),a
                           2175 ; genPlus
                           2176 ; genPlusIncr
   07F2 11 53 01           2177 	ld	de,#_map1 + 0 + 339
                           2178 ; genAssign (pointer)
   07F5 3E 0A              2179 	ld	a,#0x0A
   07F7 12                 2180 	ld	(de),a
                           2181 ; genPlus
                           2182 ; genPlusIncr
   07F8 11 54 01           2183 	ld	de,#_map1 + 0 + 340
                           2184 ; genAssign (pointer)
   07FB 3E 0A              2185 	ld	a,#0x0A
   07FD 12                 2186 	ld	(de),a
                           2187 ; genPlus
                           2188 ; genPlusIncr
   07FE 11 55 01           2189 	ld	de,#_map1 + 0 + 341
                           2190 ; genAssign (pointer)
   0801 3E 0A              2191 	ld	a,#0x0A
   0803 12                 2192 	ld	(de),a
                           2193 ; genPlus
                           2194 ; genPlusIncr
   0804 11 56 01           2195 	ld	de,#_map1 + 0 + 342
                           2196 ; genAssign (pointer)
   0807 3E 0A              2197 	ld	a,#0x0A
   0809 12                 2198 	ld	(de),a
                           2199 ; genPlus
                           2200 ; genPlusIncr
   080A 11 57 01           2201 	ld	de,#_map1 + 0 + 343
                           2202 ; genAssign (pointer)
   080D 3E 0A              2203 	ld	a,#0x0A
   080F 12                 2204 	ld	(de),a
                           2205 ; genPlus
                           2206 ; genPlusIncr
   0810 11 58 01           2207 	ld	de,#_map1 + 0 + 344
                           2208 ; genAssign (pointer)
   0813 3E 0A              2209 	ld	a,#0x0A
   0815 12                 2210 	ld	(de),a
                           2211 ; genPlus
                           2212 ; genPlusIncr
   0816 11 59 01           2213 	ld	de,#_map1 + 0 + 345
                           2214 ; genAssign (pointer)
   0819 3E 0A              2215 	ld	a,#0x0A
   081B 12                 2216 	ld	(de),a
                           2217 ; genPlus
                           2218 ; genPlusIncr
   081C 11 5A 01           2219 	ld	de,#_map1 + 0 + 346
                           2220 ; genAssign (pointer)
   081F 3E 0A              2221 	ld	a,#0x0A
   0821 12                 2222 	ld	(de),a
                           2223 ; genPlus
                           2224 ; genPlusIncr
   0822 11 5B 01           2225 	ld	de,#_map1 + 0 + 347
                           2226 ; genAssign (pointer)
   0825 3E 0A              2227 	ld	a,#0x0A
   0827 12                 2228 	ld	(de),a
                           2229 ; genPlus
                           2230 ; genPlusIncr
   0828 11 5C 01           2231 	ld	de,#_map1 + 0 + 348
                           2232 ; genAssign (pointer)
   082B 3E 0A              2233 	ld	a,#0x0A
   082D 12                 2234 	ld	(de),a
                           2235 ; genPlus
                           2236 ; genPlusIncr
   082E 11 5D 01           2237 	ld	de,#_map1 + 0 + 349
                           2238 ; genAssign (pointer)
   0831 3E 0A              2239 	ld	a,#0x0A
   0833 12                 2240 	ld	(de),a
                           2241 ; genPlus
                           2242 ; genPlusIncr
   0834 11 5E 01           2243 	ld	de,#_map1 + 0 + 350
                           2244 ; genAssign (pointer)
   0837 3E 0A              2245 	ld	a,#0x0A
   0839 12                 2246 	ld	(de),a
                           2247 ; genPlus
                           2248 ; genPlusIncr
   083A 11 5F 01           2249 	ld	de,#_map1 + 0 + 351
                           2250 ; genAssign (pointer)
   083D 3E 0A              2251 	ld	a,#0x0A
   083F 12                 2252 	ld	(de),a
                           2253 ; genPlus
                           2254 ; genPlusIncr
   0840 11 60 01           2255 	ld	de,#_map1 + 0 + 352
                           2256 ; genAssign (pointer)
   0843 3E 0A              2257 	ld	a,#0x0A
   0845 12                 2258 	ld	(de),a
                           2259 ; genPlus
                           2260 ; genPlusIncr
   0846 11 61 01           2261 	ld	de,#_map1 + 0 + 353
                           2262 ; genAssign (pointer)
   0849 3E 0A              2263 	ld	a,#0x0A
   084B 12                 2264 	ld	(de),a
                           2265 ; genPlus
                           2266 ; genPlusIncr
   084C 11 62 01           2267 	ld	de,#_map1 + 0 + 354
                           2268 ; genAssign (pointer)
   084F 3E 0A              2269 	ld	a,#0x0A
   0851 12                 2270 	ld	(de),a
                           2271 ; genPlus
                           2272 ; genPlusIncr
   0852 11 63 01           2273 	ld	de,#_map1 + 0 + 355
                           2274 ; genAssign (pointer)
   0855 3E 0A              2275 	ld	a,#0x0A
   0857 12                 2276 	ld	(de),a
                           2277 ; genPlus
                           2278 ; genPlusIncr
   0858 11 64 01           2279 	ld	de,#_map1 + 0 + 356
                           2280 ; genAssign (pointer)
   085B 3E 0A              2281 	ld	a,#0x0A
   085D 12                 2282 	ld	(de),a
                           2283 ; genPlus
                           2284 ; genPlusIncr
   085E 11 65 01           2285 	ld	de,#_map1 + 0 + 357
                           2286 ; genAssign (pointer)
   0861 3E 0A              2287 	ld	a,#0x0A
   0863 12                 2288 	ld	(de),a
                           2289 ; genPlus
                           2290 ; genPlusIncr
   0864 11 66 01           2291 	ld	de,#_map1 + 0 + 358
                           2292 ; genAssign (pointer)
   0867 3E 0A              2293 	ld	a,#0x0A
   0869 12                 2294 	ld	(de),a
                           2295 ; genPlus
                           2296 ; genPlusIncr
   086A 11 67 01           2297 	ld	de,#_map1 + 0 + 359
                           2298 ; genAssign (pointer)
   086D 3E 0A              2299 	ld	a,#0x0A
   086F 12                 2300 	ld	(de),a
                           2301 ;	main.c 392
                           2302 ; genAssign (pointer)
   0870 11 68 01           2303 	ld	de,#_badguy1_ai + 0
   0873 3E 88              2304 	ld	a,#0x88
   0875 12                 2305 	ld	(de),a
                           2306 ; genPlus
                           2307 ; genPlusIncr
   0876 11 69 01           2308 	ld	de,#_badguy1_ai + 0 + 1
                           2309 ; genAssign (pointer)
   0879 3E 88              2310 	ld	a,#0x88
   087B 12                 2311 	ld	(de),a
                           2312 ; genPlus
                           2313 ; genPlusIncr
   087C 11 6A 01           2314 	ld	de,#_badguy1_ai + 0 + 2
                           2315 ; genAssign (pointer)
   087F 3E 88              2316 	ld	a,#0x88
   0881 12                 2317 	ld	(de),a
                           2318 ; genPlus
                           2319 ; genPlusIncr
   0882 11 6B 01           2320 	ld	de,#_badguy1_ai + 0 + 3
                           2321 ; genAssign (pointer)
   0885 3E 88              2322 	ld	a,#0x88
   0887 12                 2323 	ld	(de),a
                           2324 ; genPlus
                           2325 ; genPlusIncr
   0888 11 6C 01           2326 	ld	de,#_badguy1_ai + 0 + 4
                           2327 ; genAssign (pointer)
   088B 3E 88              2328 	ld	a,#0x88
   088D 12                 2329 	ld	(de),a
                           2330 ; genPlus
                           2331 ; genPlusIncr
   088E 11 6D 01           2332 	ld	de,#_badguy1_ai + 0 + 5
                           2333 ; genAssign (pointer)
   0891 3E 88              2334 	ld	a,#0x88
   0893 12                 2335 	ld	(de),a
                           2336 ; genPlus
                           2337 ; genPlusIncr
   0894 11 6E 01           2338 	ld	de,#_badguy1_ai + 0 + 6
                           2339 ; genAssign (pointer)
   0897 3E 80              2340 	ld	a,#0x80
   0899 12                 2341 	ld	(de),a
                           2342 ; genPlus
                           2343 ; genPlusIncr
   089A 11 6F 01           2344 	ld	de,#_badguy1_ai + 0 + 7
                           2345 ; genAssign (pointer)
   089D 3E 78              2346 	ld	a,#0x78
   089F 12                 2347 	ld	(de),a
                           2348 ; genPlus
                           2349 ; genPlusIncr
   08A0 11 70 01           2350 	ld	de,#_badguy1_ai + 0 + 8
                           2351 ; genAssign (pointer)
   08A3 3E 78              2352 	ld	a,#0x78
   08A5 12                 2353 	ld	(de),a
                           2354 ; genPlus
                           2355 ; genPlusIncr
   08A6 11 71 01           2356 	ld	de,#_badguy1_ai + 0 + 9
                           2357 ; genAssign (pointer)
   08A9 3E 78              2358 	ld	a,#0x78
   08AB 12                 2359 	ld	(de),a
                           2360 ; genPlus
                           2361 ; genPlusIncr
   08AC 11 72 01           2362 	ld	de,#_badguy1_ai + 0 + 10
                           2363 ; genAssign (pointer)
   08AF 3E 78              2364 	ld	a,#0x78
   08B1 12                 2365 	ld	(de),a
                           2366 ; genPlus
                           2367 ; genPlusIncr
   08B2 11 73 01           2368 	ld	de,#_badguy1_ai + 0 + 11
                           2369 ; genAssign (pointer)
   08B5 3E 78              2370 	ld	a,#0x78
   08B7 12                 2371 	ld	(de),a
                           2372 ; genPlus
                           2373 ; genPlusIncr
   08B8 11 74 01           2374 	ld	de,#_badguy1_ai + 0 + 12
                           2375 ; genAssign (pointer)
   08BB 3E 78              2376 	ld	a,#0x78
   08BD 12                 2377 	ld	(de),a
                           2378 ; genPlus
                           2379 ; genPlusIncr
   08BE 11 75 01           2380 	ld	de,#_badguy1_ai + 0 + 13
                           2381 ; genAssign (pointer)
   08C1 3E 80              2382 	ld	a,#0x80
   08C3 12                 2383 	ld	(de),a
                           2384 ; genPlus
                           2385 ; genPlusIncr
   08C4 11 86 01           2386 	ld	de,#_badguy1_ai + 0 + 30
                           2387 ; genAssign (pointer)
   08C7 3E 30              2388 	ld	a,#0x30
   08C9 12                 2389 	ld	(de),a
                           2390 ; genPlus
                           2391 ; genPlusIncr
   08CA 11 87 01           2392 	ld	de,#_badguy1_ai + 0 + 31
                           2393 ; genAssign (pointer)
   08CD 3E 38              2394 	ld	a,#0x38
   08CF 12                 2395 	ld	(de),a
                           2396 ; genPlus
                           2397 ; genPlusIncr
   08D0 11 88 01           2398 	ld	de,#_badguy1_ai + 0 + 32
                           2399 ; genAssign (pointer)
   08D3 3E 40              2400 	ld	a,#0x40
   08D5 12                 2401 	ld	(de),a
                           2402 ; genPlus
                           2403 ; genPlusIncr
   08D6 11 89 01           2404 	ld	de,#_badguy1_ai + 0 + 33
                           2405 ; genAssign (pointer)
   08D9 3E 48              2406 	ld	a,#0x48
   08DB 12                 2407 	ld	(de),a
                           2408 ; genPlus
                           2409 ; genPlusIncr
   08DC 11 8A 01           2410 	ld	de,#_badguy1_ai + 0 + 34
                           2411 ; genAssign (pointer)
   08DF 3E 50              2412 	ld	a,#0x50
   08E1 12                 2413 	ld	(de),a
                           2414 ; genPlus
                           2415 ; genPlusIncr
   08E2 11 8B 01           2416 	ld	de,#_badguy1_ai + 0 + 35
                           2417 ; genAssign (pointer)
   08E5 3E 58              2418 	ld	a,#0x58
   08E7 12                 2419 	ld	(de),a
                           2420 ; genPlus
                           2421 ; genPlusIncr
   08E8 11 8C 01           2422 	ld	de,#_badguy1_ai + 0 + 36
                           2423 ; genAssign (pointer)
   08EB 3E 58              2424 	ld	a,#0x58
   08ED 12                 2425 	ld	(de),a
                           2426 ; genPlus
                           2427 ; genPlusIncr
   08EE 11 8D 01           2428 	ld	de,#_badguy1_ai + 0 + 37
                           2429 ; genAssign (pointer)
   08F1 3E 58              2430 	ld	a,#0x58
   08F3 12                 2431 	ld	(de),a
                           2432 ; genPlus
                           2433 ; genPlusIncr
   08F4 11 8E 01           2434 	ld	de,#_badguy1_ai + 0 + 38
                           2435 ; genAssign (pointer)
   08F7 3E 50              2436 	ld	a,#0x50
   08F9 12                 2437 	ld	(de),a
                           2438 ; genPlus
                           2439 ; genPlusIncr
   08FA 11 8F 01           2440 	ld	de,#_badguy1_ai + 0 + 39
                           2441 ; genAssign (pointer)
   08FD 3E 48              2442 	ld	a,#0x48
   08FF 12                 2443 	ld	(de),a
                           2444 ; genPlus
                           2445 ; genPlusIncr
   0900 11 90 01           2446 	ld	de,#_badguy1_ai + 0 + 40
                           2447 ; genAssign (pointer)
   0903 3E 40              2448 	ld	a,#0x40
   0905 12                 2449 	ld	(de),a
                           2450 ; genPlus
                           2451 ; genPlusIncr
   0906 11 91 01           2452 	ld	de,#_badguy1_ai + 0 + 41
                           2453 ; genAssign (pointer)
   0909 3E 38              2454 	ld	a,#0x38
   090B 12                 2455 	ld	(de),a
                           2456 ; genPlus
                           2457 ; genPlusIncr
   090C 11 92 01           2458 	ld	de,#_badguy1_ai + 0 + 42
                           2459 ; genAssign (pointer)
   090F 3E 30              2460 	ld	a,#0x30
   0911 12                 2461 	ld	(de),a
                           2462 ; genPlus
                           2463 ; genPlusIncr
   0912 11 93 01           2464 	ld	de,#_badguy1_ai + 0 + 43
                           2465 ; genAssign (pointer)
   0915 3E 30              2466 	ld	a,#0x30
   0917 12                 2467 	ld	(de),a
                           2468 ; genPlus
                           2469 ; genPlusIncr
   0918 11 A4 01           2470 	ld	de,#_badguy1_ai + 0 + 60
                           2471 ; genAssign (pointer)
   091B 3E 01              2472 	ld	a,#0x01
   091D 12                 2473 	ld	(de),a
                           2474 ; genPlus
                           2475 ; genPlusIncr
   091E 11 A5 01           2476 	ld	de,#_badguy1_ai + 0 + 61
                           2477 ; genAssign (pointer)
   0921 3E 0B              2478 	ld	a,#0x0B
   0923 12                 2479 	ld	(de),a
                           2480 ; genPlus
                           2481 ; genPlusIncr
   0924 11 A6 01           2482 	ld	de,#_badguy1_ai + 0 + 62
                           2483 ; genAssign (pointer)
   0927 3E 0A              2484 	ld	a,#0x0A
   0929 12                 2485 	ld	(de),a
                           2486 ; genPlus
                           2487 ; genPlusIncr
   092A 11 A7 01           2488 	ld	de,#_badguy1_ai + 0 + 63
                           2489 ; genAssign (pointer)
   092D 3E 09              2490 	ld	a,#0x09
   092F 12                 2491 	ld	(de),a
                           2492 ; genPlus
                           2493 ; genPlusIncr
   0930 11 A8 01           2494 	ld	de,#_badguy1_ai + 0 + 64
                           2495 ; genAssign (pointer)
   0933 3E 08              2496 	ld	a,#0x08
   0935 12                 2497 	ld	(de),a
                           2498 ; genPlus
                           2499 ; genPlusIncr
   0936 11 A9 01           2500 	ld	de,#_badguy1_ai + 0 + 65
                           2501 ; genAssign (pointer)
   0939 3E 03              2502 	ld	a,#0x03
   093B 12                 2503 	ld	(de),a
                           2504 ; genPlus
                           2505 ; genPlusIncr
   093C 11 AA 01           2506 	ld	de,#_badguy1_ai + 0 + 66
                           2507 ; genAssign (pointer)
   093F 3E 02              2508 	ld	a,#0x02
   0941 12                 2509 	ld	(de),a
                           2510 ; genPlus
                           2511 ; genPlusIncr
   0942 11 AB 01           2512 	ld	de,#_badguy1_ai + 0 + 67
                           2513 ; genAssign (pointer)
   0945 3E 01              2514 	ld	a,#0x01
   0947 12                 2515 	ld	(de),a
                           2516 ; genPlus
                           2517 ; genPlusIncr
   0948 11 AC 01           2518 	ld	de,#_badguy1_ai + 0 + 68
                           2519 ; genAssign (pointer)
   094B 3E 05              2520 	ld	a,#0x05
   094D 12                 2521 	ld	(de),a
                           2522 ; genPlus
                           2523 ; genPlusIncr
   094E 11 AD 01           2524 	ld	de,#_badguy1_ai + 0 + 69
                           2525 ; genAssign (pointer)
   0951 3E 04              2526 	ld	a,#0x04
   0953 12                 2527 	ld	(de),a
                           2528 ; genPlus
                           2529 ; genPlusIncr
   0954 11 AE 01           2530 	ld	de,#_badguy1_ai + 0 + 70
                           2531 ; genAssign (pointer)
   0957 3E 03              2532 	ld	a,#0x03
   0959 12                 2533 	ld	(de),a
                           2534 ; genPlus
                           2535 ; genPlusIncr
   095A 11 AF 01           2536 	ld	de,#_badguy1_ai + 0 + 71
                           2537 ; genAssign (pointer)
   095D 3E 02              2538 	ld	a,#0x02
   095F 12                 2539 	ld	(de),a
                           2540 ; genPlus
                           2541 ; genPlusIncr
   0960 11 B0 01           2542 	ld	de,#_badguy1_ai + 0 + 72
                           2543 ; genAssign (pointer)
   0963 3E 03              2544 	ld	a,#0x03
   0965 12                 2545 	ld	(de),a
                           2546 ; genPlus
                           2547 ; genPlusIncr
   0966 11 B1 01           2548 	ld	de,#_badguy1_ai + 0 + 73
                           2549 ; genAssign (pointer)
   0969 3E 02              2550 	ld	a,#0x02
   096B 12                 2551 	ld	(de),a
                           2552 ; genPlus
                           2553 ; genPlusIncr
   096C 11 C2 01           2554 	ld	de,#_badguy1_ai + 0 + 90
                           2555 ; genAssign (pointer)
   096F 3E 03              2556 	ld	a,#0x03
   0971 12                 2557 	ld	(de),a
                           2558 ; genPlus
                           2559 ; genPlusIncr
   0972 11 C3 01           2560 	ld	de,#_badguy1_ai + 0 + 91
                           2561 ; genAssign (pointer)
   0975 3E 03              2562 	ld	a,#0x03
   0977 12                 2563 	ld	(de),a
                           2564 ; genPlus
                           2565 ; genPlusIncr
   0978 11 C4 01           2566 	ld	de,#_badguy1_ai + 0 + 92
                           2567 ; genAssign (pointer)
   097B 3E 03              2568 	ld	a,#0x03
   097D 12                 2569 	ld	(de),a
                           2570 ; genPlus
                           2571 ; genPlusIncr
   097E 11 C5 01           2572 	ld	de,#_badguy1_ai + 0 + 93
                           2573 ; genAssign (pointer)
   0981 3E 03              2574 	ld	a,#0x03
   0983 12                 2575 	ld	(de),a
                           2576 ; genPlus
                           2577 ; genPlusIncr
   0984 11 C6 01           2578 	ld	de,#_badguy1_ai + 0 + 94
                           2579 ; genAssign (pointer)
   0987 3E 03              2580 	ld	a,#0x03
   0989 12                 2581 	ld	(de),a
                           2582 ; genPlus
                           2583 ; genPlusIncr
   098A 11 C7 01           2584 	ld	de,#_badguy1_ai + 0 + 95
                           2585 ; genAssign (pointer)
   098D 3E 02              2586 	ld	a,#0x02
   098F 12                 2587 	ld	(de),a
                           2588 ; genPlus
                           2589 ; genPlusIncr
   0990 11 C8 01           2590 	ld	de,#_badguy1_ai + 0 + 96
                           2591 ; genAssign (pointer)
   0993 3E 02              2592 	ld	a,#0x02
   0995 12                 2593 	ld	(de),a
                           2594 ; genPlus
                           2595 ; genPlusIncr
   0996 11 C9 01           2596 	ld	de,#_badguy1_ai + 0 + 97
                           2597 ; genAssign (pointer)
   0999 3E 01              2598 	ld	a,#0x01
   099B 12                 2599 	ld	(de),a
                           2600 ; genPlus
                           2601 ; genPlusIncr
   099C 11 CA 01           2602 	ld	de,#_badguy1_ai + 0 + 98
                           2603 ; genAssign (pointer)
   099F 3E 01              2604 	ld	a,#0x01
   09A1 12                 2605 	ld	(de),a
                           2606 ; genPlus
                           2607 ; genPlusIncr
   09A2 11 CB 01           2608 	ld	de,#_badguy1_ai + 0 + 99
                           2609 ; genAssign (pointer)
   09A5 3E 01              2610 	ld	a,#0x01
   09A7 12                 2611 	ld	(de),a
                           2612 ; genPlus
                           2613 ; genPlusIncr
   09A8 11 CC 01           2614 	ld	de,#_badguy1_ai + 0 + 100
                           2615 ; genAssign (pointer)
   09AB 3E 01              2616 	ld	a,#0x01
   09AD 12                 2617 	ld	(de),a
                           2618 ; genPlus
                           2619 ; genPlusIncr
   09AE 11 CD 01           2620 	ld	de,#_badguy1_ai + 0 + 101
                           2621 ; genAssign (pointer)
   09B1 3E 01              2622 	ld	a,#0x01
   09B3 12                 2623 	ld	(de),a
                           2624 ; genPlus
                           2625 ; genPlusIncr
   09B4 11 CE 01           2626 	ld	de,#_badguy1_ai + 0 + 102
                           2627 ; genAssign (pointer)
   09B7 3E 00              2628 	ld	a,#0x00
   09B9 12                 2629 	ld	(de),a
                           2630 ; genPlus
                           2631 ; genPlusIncr
   09BA 11 CF 01           2632 	ld	de,#_badguy1_ai + 0 + 103
                           2633 ; genAssign (pointer)
   09BD 3E 00              2634 	ld	a,#0x00
   09BF 12                 2635 	ld	(de),a
                           2636 ; genPlus
                           2637 ; genPlusIncr
   09C0 11 E0 01           2638 	ld	de,#_badguy1_ai + 0 + 120
                           2639 ; genAssign (pointer)
   09C3 3E 88              2640 	ld	a,#0x88
   09C5 12                 2641 	ld	(de),a
                           2642 ; genPlus
                           2643 ; genPlusIncr
   09C6 11 E1 01           2644 	ld	de,#_badguy1_ai + 0 + 121
                           2645 ; genAssign (pointer)
   09C9 3E 88              2646 	ld	a,#0x88
   09CB 12                 2647 	ld	(de),a
                           2648 ; genPlus
                           2649 ; genPlusIncr
   09CC 11 E2 01           2650 	ld	de,#_badguy1_ai + 0 + 122
                           2651 ; genAssign (pointer)
   09CF 3E 88              2652 	ld	a,#0x88
   09D1 12                 2653 	ld	(de),a
                           2654 ; genPlus
                           2655 ; genPlusIncr
   09D2 11 E3 01           2656 	ld	de,#_badguy1_ai + 0 + 123
                           2657 ; genAssign (pointer)
   09D5 3E 88              2658 	ld	a,#0x88
   09D7 12                 2659 	ld	(de),a
                           2660 ; genPlus
                           2661 ; genPlusIncr
   09D8 11 E4 01           2662 	ld	de,#_badguy1_ai + 0 + 124
                           2663 ; genAssign (pointer)
   09DB 3E 88              2664 	ld	a,#0x88
   09DD 12                 2665 	ld	(de),a
                           2666 ; genPlus
                           2667 ; genPlusIncr
   09DE 11 E5 01           2668 	ld	de,#_badguy1_ai + 0 + 125
                           2669 ; genAssign (pointer)
   09E1 3E 88              2670 	ld	a,#0x88
   09E3 12                 2671 	ld	(de),a
                           2672 ; genPlus
                           2673 ; genPlusIncr
   09E4 11 E6 01           2674 	ld	de,#_badguy1_ai + 0 + 126
                           2675 ; genAssign (pointer)
   09E7 3E 80              2676 	ld	a,#0x80
   09E9 12                 2677 	ld	(de),a
                           2678 ; genPlus
                           2679 ; genPlusIncr
   09EA 11 E7 01           2680 	ld	de,#_badguy1_ai + 0 + 127
                           2681 ; genAssign (pointer)
   09ED 3E 78              2682 	ld	a,#0x78
   09EF 12                 2683 	ld	(de),a
                           2684 ; genPlus
                           2685 ; genPlusIncr
   09F0 11 E8 01           2686 	ld	de,#_badguy1_ai + 0 + 128
                           2687 ; genAssign (pointer)
   09F3 3E 70              2688 	ld	a,#0x70
   09F5 12                 2689 	ld	(de),a
                           2690 ; genPlus
                           2691 ; genPlusIncr
   09F6 11 E9 01           2692 	ld	de,#_badguy1_ai + 0 + 129
                           2693 ; genAssign (pointer)
   09F9 3E 70              2694 	ld	a,#0x70
   09FB 12                 2695 	ld	(de),a
                           2696 ; genPlus
                           2697 ; genPlusIncr
   09FC 11 EA 01           2698 	ld	de,#_badguy1_ai + 0 + 130
                           2699 ; genAssign (pointer)
   09FF 3E 70              2700 	ld	a,#0x70
   0A01 12                 2701 	ld	(de),a
                           2702 ; genPlus
                           2703 ; genPlusIncr
   0A02 11 EB 01           2704 	ld	de,#_badguy1_ai + 0 + 131
                           2705 ; genAssign (pointer)
   0A05 3E 78              2706 	ld	a,#0x78
   0A07 12                 2707 	ld	(de),a
                           2708 ; genPlus
                           2709 ; genPlusIncr
   0A08 11 EC 01           2710 	ld	de,#_badguy1_ai + 0 + 132
                           2711 ; genAssign (pointer)
   0A0B 3E 78              2712 	ld	a,#0x78
   0A0D 12                 2713 	ld	(de),a
                           2714 ; genPlus
                           2715 ; genPlusIncr
   0A0E 11 ED 01           2716 	ld	de,#_badguy1_ai + 0 + 133
                           2717 ; genAssign (pointer)
   0A11 3E 78              2718 	ld	a,#0x78
   0A13 12                 2719 	ld	(de),a
                           2720 ; genPlus
                           2721 ; genPlusIncr
   0A14 11 EE 01           2722 	ld	de,#_badguy1_ai + 0 + 134
                           2723 ; genAssign (pointer)
   0A17 3E 78              2724 	ld	a,#0x78
   0A19 12                 2725 	ld	(de),a
                           2726 ; genPlus
                           2727 ; genPlusIncr
   0A1A 11 EF 01           2728 	ld	de,#_badguy1_ai + 0 + 135
                           2729 ; genAssign (pointer)
   0A1D 3E 80              2730 	ld	a,#0x80
   0A1F 12                 2731 	ld	(de),a
                           2732 ; genPlus
                           2733 ; genPlusIncr
   0A20 11 FE 01           2734 	ld	de,#_badguy1_ai + 0 + 150
                           2735 ; genAssign (pointer)
   0A23 3E 60              2736 	ld	a,#0x60
   0A25 12                 2737 	ld	(de),a
                           2738 ; genPlus
                           2739 ; genPlusIncr
   0A26 11 FF 01           2740 	ld	de,#_badguy1_ai + 0 + 151
                           2741 ; genAssign (pointer)
   0A29 3E 68              2742 	ld	a,#0x68
   0A2B 12                 2743 	ld	(de),a
                           2744 ; genPlus
                           2745 ; genPlusIncr
   0A2C 11 00 02           2746 	ld	de,#_badguy1_ai + 0 + 152
                           2747 ; genAssign (pointer)
   0A2F 3E 70              2748 	ld	a,#0x70
   0A31 12                 2749 	ld	(de),a
                           2750 ; genPlus
                           2751 ; genPlusIncr
   0A32 11 01 02           2752 	ld	de,#_badguy1_ai + 0 + 153
                           2753 ; genAssign (pointer)
   0A35 3E 78              2754 	ld	a,#0x78
   0A37 12                 2755 	ld	(de),a
                           2756 ; genPlus
                           2757 ; genPlusIncr
   0A38 11 02 02           2758 	ld	de,#_badguy1_ai + 0 + 154
                           2759 ; genAssign (pointer)
   0A3B 3E 80              2760 	ld	a,#0x80
   0A3D 12                 2761 	ld	(de),a
                           2762 ; genPlus
                           2763 ; genPlusIncr
   0A3E 11 03 02           2764 	ld	de,#_badguy1_ai + 0 + 155
                           2765 ; genAssign (pointer)
   0A41 3E 88              2766 	ld	a,#0x88
   0A43 12                 2767 	ld	(de),a
                           2768 ; genPlus
                           2769 ; genPlusIncr
   0A44 11 04 02           2770 	ld	de,#_badguy1_ai + 0 + 156
                           2771 ; genAssign (pointer)
   0A47 3E 88              2772 	ld	a,#0x88
   0A49 12                 2773 	ld	(de),a
                           2774 ; genPlus
                           2775 ; genPlusIncr
   0A4A 11 05 02           2776 	ld	de,#_badguy1_ai + 0 + 157
                           2777 ; genAssign (pointer)
   0A4D 3E 88              2778 	ld	a,#0x88
   0A4F 12                 2779 	ld	(de),a
                           2780 ; genPlus
                           2781 ; genPlusIncr
   0A50 11 06 02           2782 	ld	de,#_badguy1_ai + 0 + 158
                           2783 ; genAssign (pointer)
   0A53 3E 88              2784 	ld	a,#0x88
   0A55 12                 2785 	ld	(de),a
                           2786 ; genPlus
                           2787 ; genPlusIncr
   0A56 11 07 02           2788 	ld	de,#_badguy1_ai + 0 + 159
                           2789 ; genAssign (pointer)
   0A59 3E 80              2790 	ld	a,#0x80
   0A5B 12                 2791 	ld	(de),a
                           2792 ; genPlus
                           2793 ; genPlusIncr
   0A5C 11 08 02           2794 	ld	de,#_badguy1_ai + 0 + 160
                           2795 ; genAssign (pointer)
   0A5F 3E 78              2796 	ld	a,#0x78
   0A61 12                 2797 	ld	(de),a
                           2798 ; genPlus
                           2799 ; genPlusIncr
   0A62 11 09 02           2800 	ld	de,#_badguy1_ai + 0 + 161
                           2801 ; genAssign (pointer)
   0A65 3E 78              2802 	ld	a,#0x78
   0A67 12                 2803 	ld	(de),a
                           2804 ; genPlus
                           2805 ; genPlusIncr
   0A68 11 0A 02           2806 	ld	de,#_badguy1_ai + 0 + 162
                           2807 ; genAssign (pointer)
   0A6B 3E 70              2808 	ld	a,#0x70
   0A6D 12                 2809 	ld	(de),a
                           2810 ; genPlus
                           2811 ; genPlusIncr
   0A6E 11 0B 02           2812 	ld	de,#_badguy1_ai + 0 + 163
                           2813 ; genAssign (pointer)
   0A71 3E 68              2814 	ld	a,#0x68
   0A73 12                 2815 	ld	(de),a
                           2816 ; genPlus
                           2817 ; genPlusIncr
   0A74 11 0C 02           2818 	ld	de,#_badguy1_ai + 0 + 164
                           2819 ; genAssign (pointer)
   0A77 3E 60              2820 	ld	a,#0x60
   0A79 12                 2821 	ld	(de),a
                           2822 ; genPlus
                           2823 ; genPlusIncr
   0A7A 11 0D 02           2824 	ld	de,#_badguy1_ai + 0 + 165
                           2825 ; genAssign (pointer)
   0A7D 3E 60              2826 	ld	a,#0x60
   0A7F 12                 2827 	ld	(de),a
                           2828 ; genPlus
                           2829 ; genPlusIncr
   0A80 11 58 02           2830 	ld	de,#_badguy1_ai + 0 + 240
                           2831 ; genAssign (pointer)
   0A83 3E 98              2832 	ld	a,#0x98
   0A85 12                 2833 	ld	(de),a
                           2834 ; genPlus
                           2835 ; genPlusIncr
   0A86 11 59 02           2836 	ld	de,#_badguy1_ai + 0 + 241
                           2837 ; genAssign (pointer)
   0A89 3E 98              2838 	ld	a,#0x98
   0A8B 12                 2839 	ld	(de),a
                           2840 ; genPlus
                           2841 ; genPlusIncr
   0A8C 11 5A 02           2842 	ld	de,#_badguy1_ai + 0 + 242
                           2843 ; genAssign (pointer)
   0A8F 3E 98              2844 	ld	a,#0x98
   0A91 12                 2845 	ld	(de),a
                           2846 ; genPlus
                           2847 ; genPlusIncr
   0A92 11 5B 02           2848 	ld	de,#_badguy1_ai + 0 + 243
                           2849 ; genAssign (pointer)
   0A95 3E 98              2850 	ld	a,#0x98
   0A97 12                 2851 	ld	(de),a
                           2852 ; genPlus
                           2853 ; genPlusIncr
   0A98 11 5C 02           2854 	ld	de,#_badguy1_ai + 0 + 244
                           2855 ; genAssign (pointer)
   0A9B 3E 98              2856 	ld	a,#0x98
   0A9D 12                 2857 	ld	(de),a
                           2858 ; genPlus
                           2859 ; genPlusIncr
   0A9E 11 5D 02           2860 	ld	de,#_badguy1_ai + 0 + 245
                           2861 ; genAssign (pointer)
   0AA1 3E 98              2862 	ld	a,#0x98
   0AA3 12                 2863 	ld	(de),a
                           2864 ; genPlus
                           2865 ; genPlusIncr
   0AA4 11 5E 02           2866 	ld	de,#_badguy1_ai + 0 + 246
                           2867 ; genAssign (pointer)
   0AA7 3E 98              2868 	ld	a,#0x98
   0AA9 12                 2869 	ld	(de),a
                           2870 ; genPlus
                           2871 ; genPlusIncr
   0AAA 11 5F 02           2872 	ld	de,#_badguy1_ai + 0 + 247
                           2873 ; genAssign (pointer)
   0AAD 3E 98              2874 	ld	a,#0x98
   0AAF 12                 2875 	ld	(de),a
                           2876 ; genPlus
                           2877 ; genPlusIncr
   0AB0 11 60 02           2878 	ld	de,#_badguy1_ai + 0 + 248
                           2879 ; genAssign (pointer)
   0AB3 3E 98              2880 	ld	a,#0x98
   0AB5 12                 2881 	ld	(de),a
                           2882 ; genPlus
                           2883 ; genPlusIncr
   0AB6 11 61 02           2884 	ld	de,#_badguy1_ai + 0 + 249
                           2885 ; genAssign (pointer)
   0AB9 3E 98              2886 	ld	a,#0x98
   0ABB 12                 2887 	ld	(de),a
                           2888 ; genPlus
                           2889 ; genPlusIncr
   0ABC 11 62 02           2890 	ld	de,#_badguy1_ai + 0 + 250
                           2891 ; genAssign (pointer)
   0ABF 3E 98              2892 	ld	a,#0x98
   0AC1 12                 2893 	ld	(de),a
                           2894 ; genPlus
                           2895 ; genPlusIncr
   0AC2 11 63 02           2896 	ld	de,#_badguy1_ai + 0 + 251
                           2897 ; genAssign (pointer)
   0AC5 3E 98              2898 	ld	a,#0x98
   0AC7 12                 2899 	ld	(de),a
                           2900 ; genPlus
                           2901 ; genPlusIncr
   0AC8 11 64 02           2902 	ld	de,#_badguy1_ai + 0 + 252
                           2903 ; genAssign (pointer)
   0ACB 3E 98              2904 	ld	a,#0x98
   0ACD 12                 2905 	ld	(de),a
                           2906 ; genPlus
                           2907 ; genPlusIncr
   0ACE 11 65 02           2908 	ld	de,#_badguy1_ai + 0 + 253
                           2909 ; genAssign (pointer)
   0AD1 3E 98              2910 	ld	a,#0x98
   0AD3 12                 2911 	ld	(de),a
                           2912 ; genPlus
                           2913 ; genPlusIncr
   0AD4 11 66 02           2914 	ld	de,#_badguy1_ai + 0 + 254
                           2915 ; genAssign (pointer)
   0AD7 3E 98              2916 	ld	a,#0x98
   0AD9 12                 2917 	ld	(de),a
                           2918 ; genPlus
                           2919 ; genPlusIncr
   0ADA 11 67 02           2920 	ld	de,#_badguy1_ai + 0 + 255
                           2921 ; genAssign (pointer)
   0ADD 3E 98              2922 	ld	a,#0x98
   0ADF 12                 2923 	ld	(de),a
                           2924 ; genPlus
                           2925 ; genPlusIncr
   0AE0 11 68 02           2926 	ld	de,#_badguy1_ai + 0 + 256
                           2927 ; genAssign (pointer)
   0AE3 3E 98              2928 	ld	a,#0x98
   0AE5 12                 2929 	ld	(de),a
                           2930 ; genPlus
                           2931 ; genPlusIncr
   0AE6 11 69 02           2932 	ld	de,#_badguy1_ai + 0 + 257
                           2933 ; genAssign (pointer)
   0AE9 3E 98              2934 	ld	a,#0x98
   0AEB 12                 2935 	ld	(de),a
                           2936 ; genPlus
                           2937 ; genPlusIncr
   0AEC 11 6A 02           2938 	ld	de,#_badguy1_ai + 0 + 258
                           2939 ; genAssign (pointer)
   0AEF 3E 98              2940 	ld	a,#0x98
   0AF1 12                 2941 	ld	(de),a
                           2942 ; genPlus
                           2943 ; genPlusIncr
   0AF2 11 6B 02           2944 	ld	de,#_badguy1_ai + 0 + 259
                           2945 ; genAssign (pointer)
   0AF5 3E 98              2946 	ld	a,#0x98
   0AF7 12                 2947 	ld	(de),a
                           2948 ; genPlus
                           2949 ; genPlusIncr
   0AF8 11 6C 02           2950 	ld	de,#_badguy1_ai + 0 + 260
                           2951 ; genAssign (pointer)
   0AFB 3E 98              2952 	ld	a,#0x98
   0AFD 12                 2953 	ld	(de),a
                           2954 ; genPlus
                           2955 ; genPlusIncr
   0AFE 11 6D 02           2956 	ld	de,#_badguy1_ai + 0 + 261
                           2957 ; genAssign (pointer)
   0B01 3E 98              2958 	ld	a,#0x98
   0B03 12                 2959 	ld	(de),a
                           2960 ; genPlus
                           2961 ; genPlusIncr
   0B04 11 6E 02           2962 	ld	de,#_badguy1_ai + 0 + 262
                           2963 ; genAssign (pointer)
   0B07 3E 98              2964 	ld	a,#0x98
   0B09 12                 2965 	ld	(de),a
                           2966 ; genPlus
                           2967 ; genPlusIncr
   0B0A 11 6F 02           2968 	ld	de,#_badguy1_ai + 0 + 263
                           2969 ; genAssign (pointer)
   0B0D 3E 98              2970 	ld	a,#0x98
   0B0F 12                 2971 	ld	(de),a
                           2972 ; genPlus
                           2973 ; genPlusIncr
   0B10 11 70 02           2974 	ld	de,#_badguy1_ai + 0 + 264
                           2975 ; genAssign (pointer)
   0B13 3E 98              2976 	ld	a,#0x98
   0B15 12                 2977 	ld	(de),a
                           2978 ; genPlus
                           2979 ; genPlusIncr
   0B16 11 71 02           2980 	ld	de,#_badguy1_ai + 0 + 265
                           2981 ; genAssign (pointer)
   0B19 3E 98              2982 	ld	a,#0x98
   0B1B 12                 2983 	ld	(de),a
                           2984 ; genPlus
                           2985 ; genPlusIncr
   0B1C 11 72 02           2986 	ld	de,#_badguy1_ai + 0 + 266
                           2987 ; genAssign (pointer)
   0B1F 3E 98              2988 	ld	a,#0x98
   0B21 12                 2989 	ld	(de),a
                           2990 ; genPlus
                           2991 ; genPlusIncr
   0B22 11 73 02           2992 	ld	de,#_badguy1_ai + 0 + 267
                           2993 ; genAssign (pointer)
   0B25 3E 98              2994 	ld	a,#0x98
   0B27 12                 2995 	ld	(de),a
                           2996 ; genPlus
                           2997 ; genPlusIncr
   0B28 11 76 02           2998 	ld	de,#_badguy1_ai + 0 + 270
                           2999 ; genAssign (pointer)
   0B2B 3E 90              3000 	ld	a,#0x90
   0B2D 12                 3001 	ld	(de),a
                           3002 ; genPlus
                           3003 ; genPlusIncr
   0B2E 11 77 02           3004 	ld	de,#_badguy1_ai + 0 + 271
                           3005 ; genAssign (pointer)
   0B31 3E 88              3006 	ld	a,#0x88
   0B33 12                 3007 	ld	(de),a
                           3008 ; genPlus
                           3009 ; genPlusIncr
   0B34 11 78 02           3010 	ld	de,#_badguy1_ai + 0 + 272
                           3011 ; genAssign (pointer)
   0B37 3E 80              3012 	ld	a,#0x80
   0B39 12                 3013 	ld	(de),a
                           3014 ; genPlus
                           3015 ; genPlusIncr
   0B3A 11 79 02           3016 	ld	de,#_badguy1_ai + 0 + 273
                           3017 ; genAssign (pointer)
   0B3D 3E 78              3018 	ld	a,#0x78
   0B3F 12                 3019 	ld	(de),a
                           3020 ; genPlus
                           3021 ; genPlusIncr
   0B40 11 7A 02           3022 	ld	de,#_badguy1_ai + 0 + 274
                           3023 ; genAssign (pointer)
   0B43 3E 70              3024 	ld	a,#0x70
   0B45 12                 3025 	ld	(de),a
                           3026 ; genPlus
                           3027 ; genPlusIncr
   0B46 11 7B 02           3028 	ld	de,#_badguy1_ai + 0 + 275
                           3029 ; genAssign (pointer)
   0B49 3E 68              3030 	ld	a,#0x68
   0B4B 12                 3031 	ld	(de),a
                           3032 ; genPlus
                           3033 ; genPlusIncr
   0B4C 11 7C 02           3034 	ld	de,#_badguy1_ai + 0 + 276
                           3035 ; genAssign (pointer)
   0B4F 3E 60              3036 	ld	a,#0x60
   0B51 12                 3037 	ld	(de),a
                           3038 ; genPlus
                           3039 ; genPlusIncr
   0B52 11 7D 02           3040 	ld	de,#_badguy1_ai + 0 + 277
                           3041 ; genAssign (pointer)
   0B55 3E 58              3042 	ld	a,#0x58
   0B57 12                 3043 	ld	(de),a
                           3044 ; genPlus
                           3045 ; genPlusIncr
   0B58 11 7E 02           3046 	ld	de,#_badguy1_ai + 0 + 278
                           3047 ; genAssign (pointer)
   0B5B 3E 50              3048 	ld	a,#0x50
   0B5D 12                 3049 	ld	(de),a
                           3050 ; genPlus
                           3051 ; genPlusIncr
   0B5E 11 7F 02           3052 	ld	de,#_badguy1_ai + 0 + 279
                           3053 ; genAssign (pointer)
   0B61 3E 48              3054 	ld	a,#0x48
   0B63 12                 3055 	ld	(de),a
                           3056 ; genPlus
                           3057 ; genPlusIncr
   0B64 11 80 02           3058 	ld	de,#_badguy1_ai + 0 + 280
                           3059 ; genAssign (pointer)
   0B67 3E 40              3060 	ld	a,#0x40
   0B69 12                 3061 	ld	(de),a
                           3062 ; genPlus
                           3063 ; genPlusIncr
   0B6A 11 81 02           3064 	ld	de,#_badguy1_ai + 0 + 281
                           3065 ; genAssign (pointer)
   0B6D 3E 38              3066 	ld	a,#0x38
   0B6F 12                 3067 	ld	(de),a
                           3068 ; genPlus
                           3069 ; genPlusIncr
   0B70 11 82 02           3070 	ld	de,#_badguy1_ai + 0 + 282
                           3071 ; genAssign (pointer)
   0B73 3E 30              3072 	ld	a,#0x30
   0B75 12                 3073 	ld	(de),a
                           3074 ; genPlus
                           3075 ; genPlusIncr
   0B76 11 83 02           3076 	ld	de,#_badguy1_ai + 0 + 283
                           3077 ; genAssign (pointer)
   0B79 3E 28              3078 	ld	a,#0x28
   0B7B 12                 3079 	ld	(de),a
                           3080 ; genPlus
                           3081 ; genPlusIncr
   0B7C 11 84 02           3082 	ld	de,#_badguy1_ai + 0 + 284
                           3083 ; genAssign (pointer)
   0B7F 3E 20              3084 	ld	a,#0x20
   0B81 12                 3085 	ld	(de),a
                           3086 ; genPlus
                           3087 ; genPlusIncr
   0B82 11 85 02           3088 	ld	de,#_badguy1_ai + 0 + 285
                           3089 ; genAssign (pointer)
   0B85 3E 28              3090 	ld	a,#0x28
   0B87 12                 3091 	ld	(de),a
                           3092 ; genPlus
                           3093 ; genPlusIncr
   0B88 11 86 02           3094 	ld	de,#_badguy1_ai + 0 + 286
                           3095 ; genAssign (pointer)
   0B8B 3E 30              3096 	ld	a,#0x30
   0B8D 12                 3097 	ld	(de),a
                           3098 ; genPlus
                           3099 ; genPlusIncr
   0B8E 11 87 02           3100 	ld	de,#_badguy1_ai + 0 + 287
                           3101 ; genAssign (pointer)
   0B91 3E 38              3102 	ld	a,#0x38
   0B93 12                 3103 	ld	(de),a
                           3104 ; genPlus
                           3105 ; genPlusIncr
   0B94 11 88 02           3106 	ld	de,#_badguy1_ai + 0 + 288
                           3107 ; genAssign (pointer)
   0B97 3E 40              3108 	ld	a,#0x40
   0B99 12                 3109 	ld	(de),a
                           3110 ; genPlus
                           3111 ; genPlusIncr
   0B9A 11 89 02           3112 	ld	de,#_badguy1_ai + 0 + 289
                           3113 ; genAssign (pointer)
   0B9D 3E 48              3114 	ld	a,#0x48
   0B9F 12                 3115 	ld	(de),a
                           3116 ; genPlus
                           3117 ; genPlusIncr
   0BA0 11 8A 02           3118 	ld	de,#_badguy1_ai + 0 + 290
                           3119 ; genAssign (pointer)
   0BA3 3E 50              3120 	ld	a,#0x50
   0BA5 12                 3121 	ld	(de),a
                           3122 ; genPlus
                           3123 ; genPlusIncr
   0BA6 11 8B 02           3124 	ld	de,#_badguy1_ai + 0 + 291
                           3125 ; genAssign (pointer)
   0BA9 3E 58              3126 	ld	a,#0x58
   0BAB 12                 3127 	ld	(de),a
                           3128 ; genPlus
                           3129 ; genPlusIncr
   0BAC 11 8C 02           3130 	ld	de,#_badguy1_ai + 0 + 292
                           3131 ; genAssign (pointer)
   0BAF 3E 60              3132 	ld	a,#0x60
   0BB1 12                 3133 	ld	(de),a
                           3134 ; genPlus
                           3135 ; genPlusIncr
   0BB2 11 8D 02           3136 	ld	de,#_badguy1_ai + 0 + 293
                           3137 ; genAssign (pointer)
   0BB5 3E 68              3138 	ld	a,#0x68
   0BB7 12                 3139 	ld	(de),a
                           3140 ; genPlus
                           3141 ; genPlusIncr
   0BB8 11 8E 02           3142 	ld	de,#_badguy1_ai + 0 + 294
                           3143 ; genAssign (pointer)
   0BBB 3E 70              3144 	ld	a,#0x70
   0BBD 12                 3145 	ld	(de),a
                           3146 ; genPlus
                           3147 ; genPlusIncr
   0BBE 11 8F 02           3148 	ld	de,#_badguy1_ai + 0 + 295
                           3149 ; genAssign (pointer)
   0BC1 3E 78              3150 	ld	a,#0x78
   0BC3 12                 3151 	ld	(de),a
                           3152 ; genPlus
                           3153 ; genPlusIncr
   0BC4 11 90 02           3154 	ld	de,#_badguy1_ai + 0 + 296
                           3155 ; genAssign (pointer)
   0BC7 3E 80              3156 	ld	a,#0x80
   0BC9 12                 3157 	ld	(de),a
                           3158 ; genPlus
                           3159 ; genPlusIncr
   0BCA 11 91 02           3160 	ld	de,#_badguy1_ai + 0 + 297
                           3161 ; genAssign (pointer)
   0BCD 3E 88              3162 	ld	a,#0x88
   0BCF 12                 3163 	ld	(de),a
                           3164 ;	main.c 392
                           3165 ; genAssign (pointer)
   0BD0 11 D0 02           3166 	ld	de,#_badguy2_ai + 0
   0BD3 3E 38              3167 	ld	a,#0x38
   0BD5 12                 3168 	ld	(de),a
                           3169 ; genPlus
                           3170 ; genPlusIncr
   0BD6 11 D1 02           3171 	ld	de,#_badguy2_ai + 0 + 1
                           3172 ; genAssign (pointer)
   0BD9 3E 40              3173 	ld	a,#0x40
   0BDB 12                 3174 	ld	(de),a
                           3175 ; genPlus
                           3176 ; genPlusIncr
   0BDC 11 D2 02           3177 	ld	de,#_badguy2_ai + 0 + 2
                           3178 ; genAssign (pointer)
   0BDF 3E 48              3179 	ld	a,#0x48
   0BE1 12                 3180 	ld	(de),a
                           3181 ; genPlus
                           3182 ; genPlusIncr
   0BE2 11 D3 02           3183 	ld	de,#_badguy2_ai + 0 + 3
                           3184 ; genAssign (pointer)
   0BE5 3E 50              3185 	ld	a,#0x50
   0BE7 12                 3186 	ld	(de),a
                           3187 ; genPlus
                           3188 ; genPlusIncr
   0BE8 11 D4 02           3189 	ld	de,#_badguy2_ai + 0 + 4
                           3190 ; genAssign (pointer)
   0BEB 3E 58              3191 	ld	a,#0x58
   0BED 12                 3192 	ld	(de),a
                           3193 ; genPlus
                           3194 ; genPlusIncr
   0BEE 11 D5 02           3195 	ld	de,#_badguy2_ai + 0 + 5
                           3196 ; genAssign (pointer)
   0BF1 3E 60              3197 	ld	a,#0x60
   0BF3 12                 3198 	ld	(de),a
                           3199 ; genPlus
                           3200 ; genPlusIncr
   0BF4 11 D6 02           3201 	ld	de,#_badguy2_ai + 0 + 6
                           3202 ; genAssign (pointer)
   0BF7 3E 60              3203 	ld	a,#0x60
   0BF9 12                 3204 	ld	(de),a
                           3205 ; genPlus
                           3206 ; genPlusIncr
   0BFA 11 D7 02           3207 	ld	de,#_badguy2_ai + 0 + 7
                           3208 ; genAssign (pointer)
   0BFD 3E 60              3209 	ld	a,#0x60
   0BFF 12                 3210 	ld	(de),a
                           3211 ; genPlus
                           3212 ; genPlusIncr
   0C00 11 D8 02           3213 	ld	de,#_badguy2_ai + 0 + 8
                           3214 ; genAssign (pointer)
   0C03 3E 58              3215 	ld	a,#0x58
   0C05 12                 3216 	ld	(de),a
                           3217 ; genPlus
                           3218 ; genPlusIncr
   0C06 11 D9 02           3219 	ld	de,#_badguy2_ai + 0 + 9
                           3220 ; genAssign (pointer)
   0C09 3E 50              3221 	ld	a,#0x50
   0C0B 12                 3222 	ld	(de),a
                           3223 ; genPlus
                           3224 ; genPlusIncr
   0C0C 11 DA 02           3225 	ld	de,#_badguy2_ai + 0 + 10
                           3226 ; genAssign (pointer)
   0C0F 3E 48              3227 	ld	a,#0x48
   0C11 12                 3228 	ld	(de),a
                           3229 ; genPlus
                           3230 ; genPlusIncr
   0C12 11 DB 02           3231 	ld	de,#_badguy2_ai + 0 + 11
                           3232 ; genAssign (pointer)
   0C15 3E 40              3233 	ld	a,#0x40
   0C17 12                 3234 	ld	(de),a
                           3235 ; genPlus
                           3236 ; genPlusIncr
   0C18 11 DC 02           3237 	ld	de,#_badguy2_ai + 0 + 12
                           3238 ; genAssign (pointer)
   0C1B 3E 38              3239 	ld	a,#0x38
   0C1D 12                 3240 	ld	(de),a
                           3241 ; genPlus
                           3242 ; genPlusIncr
   0C1E 11 DD 02           3243 	ld	de,#_badguy2_ai + 0 + 13
                           3244 ; genAssign (pointer)
   0C21 3E 38              3245 	ld	a,#0x38
   0C23 12                 3246 	ld	(de),a
                           3247 ; genPlus
                           3248 ; genPlusIncr
   0C24 11 EE 02           3249 	ld	de,#_badguy2_ai + 0 + 30
                           3250 ; genAssign (pointer)
   0C27 3E 70              3251 	ld	a,#0x70
   0C29 12                 3252 	ld	(de),a
                           3253 ; genPlus
                           3254 ; genPlusIncr
   0C2A 11 EF 02           3255 	ld	de,#_badguy2_ai + 0 + 31
                           3256 ; genAssign (pointer)
   0C2D 3E 70              3257 	ld	a,#0x70
   0C2F 12                 3258 	ld	(de),a
                           3259 ; genPlus
                           3260 ; genPlusIncr
   0C30 11 F0 02           3261 	ld	de,#_badguy2_ai + 0 + 32
                           3262 ; genAssign (pointer)
   0C33 3E 70              3263 	ld	a,#0x70
   0C35 12                 3264 	ld	(de),a
                           3265 ; genPlus
                           3266 ; genPlusIncr
   0C36 11 F1 02           3267 	ld	de,#_badguy2_ai + 0 + 33
                           3268 ; genAssign (pointer)
   0C39 3E 70              3269 	ld	a,#0x70
   0C3B 12                 3270 	ld	(de),a
                           3271 ; genPlus
                           3272 ; genPlusIncr
   0C3C 11 F2 02           3273 	ld	de,#_badguy2_ai + 0 + 34
                           3274 ; genAssign (pointer)
   0C3F 3E 70              3275 	ld	a,#0x70
   0C41 12                 3276 	ld	(de),a
                           3277 ; genPlus
                           3278 ; genPlusIncr
   0C42 11 F3 02           3279 	ld	de,#_badguy2_ai + 0 + 35
                           3280 ; genAssign (pointer)
   0C45 3E 70              3281 	ld	a,#0x70
   0C47 12                 3282 	ld	(de),a
                           3283 ; genPlus
                           3284 ; genPlusIncr
   0C48 11 F4 02           3285 	ld	de,#_badguy2_ai + 0 + 36
                           3286 ; genAssign (pointer)
   0C4B 3E 78              3287 	ld	a,#0x78
   0C4D 12                 3288 	ld	(de),a
                           3289 ; genPlus
                           3290 ; genPlusIncr
   0C4E 11 F5 02           3291 	ld	de,#_badguy2_ai + 0 + 37
                           3292 ; genAssign (pointer)
   0C51 3E 80              3293 	ld	a,#0x80
   0C53 12                 3294 	ld	(de),a
                           3295 ; genPlus
                           3296 ; genPlusIncr
   0C54 11 F6 02           3297 	ld	de,#_badguy2_ai + 0 + 38
                           3298 ; genAssign (pointer)
   0C57 3E 80              3299 	ld	a,#0x80
   0C59 12                 3300 	ld	(de),a
                           3301 ; genPlus
                           3302 ; genPlusIncr
   0C5A 11 F7 02           3303 	ld	de,#_badguy2_ai + 0 + 39
                           3304 ; genAssign (pointer)
   0C5D 3E 80              3305 	ld	a,#0x80
   0C5F 12                 3306 	ld	(de),a
                           3307 ; genPlus
                           3308 ; genPlusIncr
   0C60 11 F8 02           3309 	ld	de,#_badguy2_ai + 0 + 40
                           3310 ; genAssign (pointer)
   0C63 3E 80              3311 	ld	a,#0x80
   0C65 12                 3312 	ld	(de),a
                           3313 ; genPlus
                           3314 ; genPlusIncr
   0C66 11 F9 02           3315 	ld	de,#_badguy2_ai + 0 + 41
                           3316 ; genAssign (pointer)
   0C69 3E 80              3317 	ld	a,#0x80
   0C6B 12                 3318 	ld	(de),a
                           3319 ; genPlus
                           3320 ; genPlusIncr
   0C6C 11 FA 02           3321 	ld	de,#_badguy2_ai + 0 + 42
                           3322 ; genAssign (pointer)
   0C6F 3E 80              3323 	ld	a,#0x80
   0C71 12                 3324 	ld	(de),a
                           3325 ; genPlus
                           3326 ; genPlusIncr
   0C72 11 FB 02           3327 	ld	de,#_badguy2_ai + 0 + 43
                           3328 ; genAssign (pointer)
   0C75 3E 78              3329 	ld	a,#0x78
   0C77 12                 3330 	ld	(de),a
                           3331 ; genPlus
                           3332 ; genPlusIncr
   0C78 11 0C 03           3333 	ld	de,#_badguy2_ai + 0 + 60
                           3334 ; genAssign (pointer)
   0C7B 3E 10              3335 	ld	a,#0x10
   0C7D 12                 3336 	ld	(de),a
                           3337 ; genPlus
                           3338 ; genPlusIncr
   0C7E 11 0D 03           3339 	ld	de,#_badguy2_ai + 0 + 61
                           3340 ; genAssign (pointer)
   0C81 3E 18              3341 	ld	a,#0x18
   0C83 12                 3342 	ld	(de),a
                           3343 ; genPlus
                           3344 ; genPlusIncr
   0C84 11 0E 03           3345 	ld	de,#_badguy2_ai + 0 + 62
                           3346 ; genAssign (pointer)
   0C87 3E 20              3347 	ld	a,#0x20
   0C89 12                 3348 	ld	(de),a
                           3349 ; genPlus
                           3350 ; genPlusIncr
   0C8A 11 0F 03           3351 	ld	de,#_badguy2_ai + 0 + 63
                           3352 ; genAssign (pointer)
   0C8D 3E 20              3353 	ld	a,#0x20
   0C8F 12                 3354 	ld	(de),a
                           3355 ; genPlus
                           3356 ; genPlusIncr
   0C90 11 10 03           3357 	ld	de,#_badguy2_ai + 0 + 64
                           3358 ; genAssign (pointer)
   0C93 3E 20              3359 	ld	a,#0x20
   0C95 12                 3360 	ld	(de),a
                           3361 ; genPlus
                           3362 ; genPlusIncr
   0C96 11 11 03           3363 	ld	de,#_badguy2_ai + 0 + 65
                           3364 ; genAssign (pointer)
   0C99 3E 18              3365 	ld	a,#0x18
   0C9B 12                 3366 	ld	(de),a
                           3367 ; genPlus
                           3368 ; genPlusIncr
   0C9C 11 12 03           3369 	ld	de,#_badguy2_ai + 0 + 66
                           3370 ; genAssign (pointer)
   0C9F 3E 10              3371 	ld	a,#0x10
   0CA1 12                 3372 	ld	(de),a
                           3373 ; genPlus
                           3374 ; genPlusIncr
   0CA2 11 13 03           3375 	ld	de,#_badguy2_ai + 0 + 67
                           3376 ; genAssign (pointer)
   0CA5 3E 18              3377 	ld	a,#0x18
   0CA7 12                 3378 	ld	(de),a
                           3379 ; genPlus
                           3380 ; genPlusIncr
   0CA8 11 14 03           3381 	ld	de,#_badguy2_ai + 0 + 68
                           3382 ; genAssign (pointer)
   0CAB 3E 20              3383 	ld	a,#0x20
   0CAD 12                 3384 	ld	(de),a
                           3385 ; genPlus
                           3386 ; genPlusIncr
   0CAE 11 15 03           3387 	ld	de,#_badguy2_ai + 0 + 69
                           3388 ; genAssign (pointer)
   0CB1 3E 20              3389 	ld	a,#0x20
   0CB3 12                 3390 	ld	(de),a
                           3391 ; genPlus
                           3392 ; genPlusIncr
   0CB4 11 16 03           3393 	ld	de,#_badguy2_ai + 0 + 70
                           3394 ; genAssign (pointer)
   0CB7 3E 20              3395 	ld	a,#0x20
   0CB9 12                 3396 	ld	(de),a
                           3397 ; genPlus
                           3398 ; genPlusIncr
   0CBA 11 17 03           3399 	ld	de,#_badguy2_ai + 0 + 71
                           3400 ; genAssign (pointer)
   0CBD 3E 18              3401 	ld	a,#0x18
   0CBF 12                 3402 	ld	(de),a
                           3403 ; genPlus
                           3404 ; genPlusIncr
   0CC0 11 2A 03           3405 	ld	de,#_badguy2_ai + 0 + 90
                           3406 ; genAssign (pointer)
   0CC3 3E 80              3407 	ld	a,#0x80
   0CC5 12                 3408 	ld	(de),a
                           3409 ; genPlus
                           3410 ; genPlusIncr
   0CC6 11 2B 03           3411 	ld	de,#_badguy2_ai + 0 + 91
                           3412 ; genAssign (pointer)
   0CC9 3E 80              3413 	ld	a,#0x80
   0CCB 12                 3414 	ld	(de),a
                           3415 ; genPlus
                           3416 ; genPlusIncr
   0CCC 11 2C 03           3417 	ld	de,#_badguy2_ai + 0 + 92
                           3418 ; genAssign (pointer)
   0CCF 3E 80              3419 	ld	a,#0x80
   0CD1 12                 3420 	ld	(de),a
                           3421 ; genPlus
                           3422 ; genPlusIncr
   0CD2 11 2D 03           3423 	ld	de,#_badguy2_ai + 0 + 93
                           3424 ; genAssign (pointer)
   0CD5 3E 78              3425 	ld	a,#0x78
   0CD7 12                 3426 	ld	(de),a
                           3427 ; genPlus
                           3428 ; genPlusIncr
   0CD8 11 2E 03           3429 	ld	de,#_badguy2_ai + 0 + 94
                           3430 ; genAssign (pointer)
   0CDB 3E 70              3431 	ld	a,#0x70
   0CDD 12                 3432 	ld	(de),a
                           3433 ; genPlus
                           3434 ; genPlusIncr
   0CDE 11 2F 03           3435 	ld	de,#_badguy2_ai + 0 + 95
                           3436 ; genAssign (pointer)
   0CE1 3E 70              3437 	ld	a,#0x70
   0CE3 12                 3438 	ld	(de),a
                           3439 ; genPlus
                           3440 ; genPlusIncr
   0CE4 11 30 03           3441 	ld	de,#_badguy2_ai + 0 + 96
                           3442 ; genAssign (pointer)
   0CE7 3E 70              3443 	ld	a,#0x70
   0CE9 12                 3444 	ld	(de),a
                           3445 ; genPlus
                           3446 ; genPlusIncr
   0CEA 11 31 03           3447 	ld	de,#_badguy2_ai + 0 + 97
                           3448 ; genAssign (pointer)
   0CED 3E 70              3449 	ld	a,#0x70
   0CEF 12                 3450 	ld	(de),a
                           3451 ; genPlus
                           3452 ; genPlusIncr
   0CF0 11 32 03           3453 	ld	de,#_badguy2_ai + 0 + 98
                           3454 ; genAssign (pointer)
   0CF3 3E 70              3455 	ld	a,#0x70
   0CF5 12                 3456 	ld	(de),a
                           3457 ; genPlus
                           3458 ; genPlusIncr
   0CF6 11 33 03           3459 	ld	de,#_badguy2_ai + 0 + 99
                           3460 ; genAssign (pointer)
   0CF9 3E 78              3461 	ld	a,#0x78
   0CFB 12                 3462 	ld	(de),a
                           3463 ; genPlus
                           3464 ; genPlusIncr
   0CFC 11 34 03           3465 	ld	de,#_badguy2_ai + 0 + 100
                           3466 ; genAssign (pointer)
   0CFF 3E 80              3467 	ld	a,#0x80
   0D01 12                 3468 	ld	(de),a
                           3469 ; genPlus
                           3470 ; genPlusIncr
   0D02 11 35 03           3471 	ld	de,#_badguy2_ai + 0 + 101
                           3472 ; genAssign (pointer)
   0D05 3E 80              3473 	ld	a,#0x80
   0D07 12                 3474 	ld	(de),a
                           3475 ; genPlus
                           3476 ; genPlusIncr
   0D08 11 48 03           3477 	ld	de,#_badguy2_ai + 0 + 120
                           3478 ; genAssign (pointer)
   0D0B 3E 28              3479 	ld	a,#0x28
   0D0D 12                 3480 	ld	(de),a
                           3481 ; genPlus
                           3482 ; genPlusIncr
   0D0E 11 49 03           3483 	ld	de,#_badguy2_ai + 0 + 121
                           3484 ; genAssign (pointer)
   0D11 3E 28              3485 	ld	a,#0x28
   0D13 12                 3486 	ld	(de),a
                           3487 ; genPlus
                           3488 ; genPlusIncr
   0D14 11 4A 03           3489 	ld	de,#_badguy2_ai + 0 + 122
                           3490 ; genAssign (pointer)
   0D17 3E 28              3491 	ld	a,#0x28
   0D19 12                 3492 	ld	(de),a
                           3493 ; genPlus
                           3494 ; genPlusIncr
   0D1A 11 4B 03           3495 	ld	de,#_badguy2_ai + 0 + 123
                           3496 ; genAssign (pointer)
   0D1D 3E 28              3497 	ld	a,#0x28
   0D1F 12                 3498 	ld	(de),a
                           3499 ; genPlus
                           3500 ; genPlusIncr
   0D20 11 4C 03           3501 	ld	de,#_badguy2_ai + 0 + 124
                           3502 ; genAssign (pointer)
   0D23 3E 28              3503 	ld	a,#0x28
   0D25 12                 3504 	ld	(de),a
                           3505 ; genPlus
                           3506 ; genPlusIncr
   0D26 11 4D 03           3507 	ld	de,#_badguy2_ai + 0 + 125
                           3508 ; genAssign (pointer)
   0D29 3E 28              3509 	ld	a,#0x28
   0D2B 12                 3510 	ld	(de),a
                           3511 ; genPlus
                           3512 ; genPlusIncr
   0D2C 11 4E 03           3513 	ld	de,#_badguy2_ai + 0 + 126
                           3514 ; genAssign (pointer)
   0D2F 3E 28              3515 	ld	a,#0x28
   0D31 12                 3516 	ld	(de),a
                           3517 ; genPlus
                           3518 ; genPlusIncr
   0D32 11 4F 03           3519 	ld	de,#_badguy2_ai + 0 + 127
                           3520 ; genAssign (pointer)
   0D35 3E 28              3521 	ld	a,#0x28
   0D37 12                 3522 	ld	(de),a
                           3523 ; genPlus
                           3524 ; genPlusIncr
   0D38 11 50 03           3525 	ld	de,#_badguy2_ai + 0 + 128
                           3526 ; genAssign (pointer)
   0D3B 3E 28              3527 	ld	a,#0x28
   0D3D 12                 3528 	ld	(de),a
                           3529 ; genPlus
                           3530 ; genPlusIncr
   0D3E 11 51 03           3531 	ld	de,#_badguy2_ai + 0 + 129
                           3532 ; genAssign (pointer)
   0D41 3E 28              3533 	ld	a,#0x28
   0D43 12                 3534 	ld	(de),a
                           3535 ; genPlus
                           3536 ; genPlusIncr
   0D44 11 52 03           3537 	ld	de,#_badguy2_ai + 0 + 130
                           3538 ; genAssign (pointer)
   0D47 3E 28              3539 	ld	a,#0x28
   0D49 12                 3540 	ld	(de),a
                           3541 ; genPlus
                           3542 ; genPlusIncr
   0D4A 11 53 03           3543 	ld	de,#_badguy2_ai + 0 + 131
                           3544 ; genAssign (pointer)
   0D4D 3E 28              3545 	ld	a,#0x28
   0D4F 12                 3546 	ld	(de),a
                           3547 ; genPlus
                           3548 ; genPlusIncr
   0D50 11 54 03           3549 	ld	de,#_badguy2_ai + 0 + 132
                           3550 ; genAssign (pointer)
   0D53 3E 28              3551 	ld	a,#0x28
   0D55 12                 3552 	ld	(de),a
                           3553 ; genPlus
                           3554 ; genPlusIncr
   0D56 11 55 03           3555 	ld	de,#_badguy2_ai + 0 + 133
                           3556 ; genAssign (pointer)
   0D59 3E 28              3557 	ld	a,#0x28
   0D5B 12                 3558 	ld	(de),a
                           3559 ; genPlus
                           3560 ; genPlusIncr
   0D5C 11 56 03           3561 	ld	de,#_badguy2_ai + 0 + 134
                           3562 ; genAssign (pointer)
   0D5F 3E 28              3563 	ld	a,#0x28
   0D61 12                 3564 	ld	(de),a
                           3565 ; genPlus
                           3566 ; genPlusIncr
   0D62 11 57 03           3567 	ld	de,#_badguy2_ai + 0 + 135
                           3568 ; genAssign (pointer)
   0D65 3E 28              3569 	ld	a,#0x28
   0D67 12                 3570 	ld	(de),a
                           3571 ; genPlus
                           3572 ; genPlusIncr
   0D68 11 66 03           3573 	ld	de,#_badguy2_ai + 0 + 150
                           3574 ; genAssign (pointer)
   0D6B 3E 30              3575 	ld	a,#0x30
   0D6D 12                 3576 	ld	(de),a
                           3577 ; genPlus
                           3578 ; genPlusIncr
   0D6E 11 67 03           3579 	ld	de,#_badguy2_ai + 0 + 151
                           3580 ; genAssign (pointer)
   0D71 3E 38              3581 	ld	a,#0x38
   0D73 12                 3582 	ld	(de),a
                           3583 ; genPlus
                           3584 ; genPlusIncr
   0D74 11 68 03           3585 	ld	de,#_badguy2_ai + 0 + 152
                           3586 ; genAssign (pointer)
   0D77 3E 40              3587 	ld	a,#0x40
   0D79 12                 3588 	ld	(de),a
                           3589 ; genPlus
                           3590 ; genPlusIncr
   0D7A 11 69 03           3591 	ld	de,#_badguy2_ai + 0 + 153
                           3592 ; genAssign (pointer)
   0D7D 3E 48              3593 	ld	a,#0x48
   0D7F 12                 3594 	ld	(de),a
                           3595 ; genPlus
                           3596 ; genPlusIncr
   0D80 11 6A 03           3597 	ld	de,#_badguy2_ai + 0 + 154
                           3598 ; genAssign (pointer)
   0D83 3E 50              3599 	ld	a,#0x50
   0D85 12                 3600 	ld	(de),a
                           3601 ; genPlus
                           3602 ; genPlusIncr
   0D86 11 6B 03           3603 	ld	de,#_badguy2_ai + 0 + 155
                           3604 ; genAssign (pointer)
   0D89 3E 58              3605 	ld	a,#0x58
   0D8B 12                 3606 	ld	(de),a
                           3607 ; genPlus
                           3608 ; genPlusIncr
   0D8C 11 6C 03           3609 	ld	de,#_badguy2_ai + 0 + 156
                           3610 ; genAssign (pointer)
   0D8F 3E 60              3611 	ld	a,#0x60
   0D91 12                 3612 	ld	(de),a
                           3613 ; genPlus
                           3614 ; genPlusIncr
   0D92 11 6D 03           3615 	ld	de,#_badguy2_ai + 0 + 157
                           3616 ; genAssign (pointer)
   0D95 3E 68              3617 	ld	a,#0x68
   0D97 12                 3618 	ld	(de),a
                           3619 ; genPlus
                           3620 ; genPlusIncr
   0D98 11 6E 03           3621 	ld	de,#_badguy2_ai + 0 + 158
                           3622 ; genAssign (pointer)
   0D9B 3E 70              3623 	ld	a,#0x70
   0D9D 12                 3624 	ld	(de),a
                           3625 ; genPlus
                           3626 ; genPlusIncr
   0D9E 11 6F 03           3627 	ld	de,#_badguy2_ai + 0 + 159
                           3628 ; genAssign (pointer)
   0DA1 3E 68              3629 	ld	a,#0x68
   0DA3 12                 3630 	ld	(de),a
                           3631 ; genPlus
                           3632 ; genPlusIncr
   0DA4 11 70 03           3633 	ld	de,#_badguy2_ai + 0 + 160
                           3634 ; genAssign (pointer)
   0DA7 3E 60              3635 	ld	a,#0x60
   0DA9 12                 3636 	ld	(de),a
                           3637 ; genPlus
                           3638 ; genPlusIncr
   0DAA 11 71 03           3639 	ld	de,#_badguy2_ai + 0 + 161
                           3640 ; genAssign (pointer)
   0DAD 3E 58              3641 	ld	a,#0x58
   0DAF 12                 3642 	ld	(de),a
                           3643 ; genPlus
                           3644 ; genPlusIncr
   0DB0 11 72 03           3645 	ld	de,#_badguy2_ai + 0 + 162
                           3646 ; genAssign (pointer)
   0DB3 3E 50              3647 	ld	a,#0x50
   0DB5 12                 3648 	ld	(de),a
                           3649 ; genPlus
                           3650 ; genPlusIncr
   0DB6 11 73 03           3651 	ld	de,#_badguy2_ai + 0 + 163
                           3652 ; genAssign (pointer)
   0DB9 3E 48              3653 	ld	a,#0x48
   0DBB 12                 3654 	ld	(de),a
                           3655 ; genPlus
                           3656 ; genPlusIncr
   0DBC 11 74 03           3657 	ld	de,#_badguy2_ai + 0 + 164
                           3658 ; genAssign (pointer)
   0DBF 3E 40              3659 	ld	a,#0x40
   0DC1 12                 3660 	ld	(de),a
                           3661 ; genPlus
                           3662 ; genPlusIncr
   0DC2 11 75 03           3663 	ld	de,#_badguy2_ai + 0 + 165
                           3664 ; genAssign (pointer)
   0DC5 3E 38              3665 	ld	a,#0x38
   0DC7 12                 3666 	ld	(de),a
                           3667 ;	main.c 392
                           3668 ; genAssign
                           3669 ; AOP_HL for _count
   0DC8 21 87 03           3670 	ld	hl,#_count + 0
   0DCB 36 00              3671 	ld	(hl),#0x00
                           3672 ;	main.c 392
                           3673 ; genAssign
                           3674 ; AOP_HL for _badguy_b
   0DCD 21 93 03           3675 	ld	hl,#_badguy_b + 0
   0DD0 36 00              3676 	ld	(hl),#0x00
                           3677 ;	main.c 392
                           3678 ; genAssign
                           3679 ; AOP_HL for _doggo_x
   0DD2 21 9A 03           3680 	ld	hl,#_doggo_x + 0
   0DD5 36 00              3681 	ld	(hl),#0x00
                           3682 ;	main.c 392
                           3683 ; genAssign
                           3684 ; AOP_HL for _doggo_y
   0DD7 21 9B 03           3685 	ld	hl,#_doggo_y + 0
   0DDA 36 00              3686 	ld	(hl),#0x00
                           3687 ;--------------------------------------------------------
                           3688 ; Home
                           3689 ;--------------------------------------------------------
                           3690 	.area _HOME
                           3691 	.area _CODE
                           3692 ;--------------------------------------------------------
                           3693 ; code
                           3694 ;--------------------------------------------------------
                           3695 	.area _CODE
                           3696 ;	main.c 30
                           3697 ; genLabel
                           3698 ; genFunction
                           3699 ;	---------------------------------
                           3700 ; Function playermove
                           3701 ; ---------------------------------
   0000                    3702 ___playermove_start:
   0000                    3703 _playermove:
   0000 C5                 3704 	push	bc
   0001 E8 F8              3705 	lda	sp,-8(sp)
                           3706 ;	main.c 34
                           3707 ; genMinus
                           3708 ; AOP_STK for 
   0003 F8 0C              3709 	lda	hl,12(sp)
   0005 7E                 3710 	ld	a,(hl)
   0006 C6 F8              3711 	add	a,#0xF8
   0008 4F                 3712 	ld	c,a
                           3713 ; genRightShift
                           3714 ; shift right 	result 1, left 1
                           3715 ; Removed redundent load
   0009 CB 39              3716 	srl	c
   000B CB 39              3717 	srl	c
   000D CB 39              3718 	srl	c
                           3719 ; genCast
                           3720 ; AOP_STK for _playermove_indexTx_1_1
   000F F8 06              3721 	lda	hl,6(sp)
   0011 71                 3722 	ld	(hl),c
   0012 23                 3723 	inc	hl
   0013 36 00              3724 	ld	(hl),#0x00
                           3725 ;	main.c 35
                           3726 ; genMinus
                           3727 ; AOP_STK for 
   0015 F8 0D              3728 	lda	hl,13(sp)
   0017 7E                 3729 	ld	a,(hl)
   0018 C6 F0              3730 	add	a,#0xF0
   001A 4F                 3731 	ld	c,a
                           3732 ; genRightShift
                           3733 ; shift right 	result 1, left 1
                           3734 ; Removed redundent load
   001B CB 39              3735 	srl	c
   001D CB 39              3736 	srl	c
   001F CB 39              3737 	srl	c
                           3738 ; genCast
                           3739 ; AOP_STK for _playermove_indexTy_1_1
   0021 F8 04              3740 	lda	hl,4(sp)
   0023 71                 3741 	ld	(hl),c
   0024 23                 3742 	inc	hl
   0025 36 00              3743 	ld	(hl),#0x00
                           3744 ;	main.c 36
                           3745 ; genIpush
   0027 21 14 00           3746 	ld	hl,#0x0014
   002A E5                 3747 	push	hl
                           3748 ; genIpush
                           3749 ; AOP_STK for _playermove_indexTy_1_1
   002B F8 06              3750 	lda	hl,6(sp)
   002D 2A                 3751 	ld	a,(hl+)
   002E 66                 3752 	ld	h,(hl)
   002F 6F                 3753 	ld	l,a
   0030 E5                 3754 	push	hl
                           3755 ; genCall
   0031 CD 00 00           3756 	call	__muluint
   0034 42                 3757 	ld	b,d
   0035 4B                 3758 	ld	c,e
   0036 E8 04              3759 	lda	sp,4(sp)
                           3760 ; genPlus
                           3761 ; AOP_STK for _playermove_indexTx_1_1
                           3762 ; AOP_STK for _playermove_indexT_1_1
                           3763 ;	genPlusIncr failed
   0038 F8 06              3764 	lda	hl,6(sp)
   003A 2A                 3765 	ld	a,(hl+)
   003B 66                 3766 	ld	h,(hl)
   003C 6F                 3767 	ld	l,a
   003D 09                 3768 	add	hl,bc
   003E 7D                 3769 	ld	a,l
   003F 54                 3770 	ld	d,h
   0040 F8 02              3771 	lda	hl,2(sp)
   0042 22                 3772 	ld	(hl+),a
   0043 72                 3773 	ld	(hl),d
                           3774 ;	main.c 38
                           3775 ; genIfx
                           3776 ; AOP_HL for _debug
   0044 AF                 3777 	xor	a,a
   0045 21 86 03           3778 	ld	hl,#_debug + 0
   0048 B6                 3779 	or	a,(hl)
   0049 B7                 3780 	or	a,a
   004A CA 95 00           3781 	jp	z,00102$
                           3782 ;	main.c 39
                           3783 ; genCast
                           3784 ; AOP_HL for _badguy_z
   004D 21 92 03           3785 	ld	hl,#_badguy_z + 0
   0050 4E                 3786 	ld	c,(hl)
   0051 06 00              3787 	ld	b,#0x00
                           3788 ; genIpush
   0053 C5                 3789 	push	bc
                           3790 ; genIpush
   0054 21 37 02           3791 	ld	hl,#__str_0 + 0
   0057 E5                 3792 	push	hl
                           3793 ; genCall
   0058 CD 00 00           3794 	call	_printf
   005B E8 04              3795 	lda	sp,4(sp)
                           3796 ;	main.c 40
                           3797 ; genCast
                           3798 ; AOP_STK for 
                           3799 ; AOP_STK for _playermove_sloc0_1_0
   005D F8 0D              3800 	lda	hl,13(sp)
   005F 7E                 3801 	ld	a,(hl)
   0060 F8 00              3802 	lda	hl,0(sp)
   0062 22                 3803 	ld	(hl+),a
   0063 36 00              3804 	ld	(hl),#0x00
                           3805 ; genCast
                           3806 ; AOP_STK for 
   0065 F8 0C              3807 	lda	hl,12(sp)
   0067 4E                 3808 	ld	c,(hl)
   0068 06 00              3809 	ld	b,#0x00
                           3810 ; genIpush
                           3811 ; AOP_STK for _playermove_sloc0_1_0
   006A F8 00              3812 	lda	hl,0(sp)
   006C 2A                 3813 	ld	a,(hl+)
   006D 66                 3814 	ld	h,(hl)
   006E 6F                 3815 	ld	l,a
   006F E5                 3816 	push	hl
                           3817 ; genIpush
   0070 C5                 3818 	push	bc
                           3819 ; genIpush
   0071 21 3C 02           3820 	ld	hl,#__str_1 + 0
   0074 E5                 3821 	push	hl
                           3822 ; genCall
   0075 CD 00 00           3823 	call	_printf
   0078 E8 06              3824 	lda	sp,6(sp)
                           3825 ;	main.c 41
                           3826 ; genIpush
                           3827 ; AOP_STK for _playermove_indexT_1_1
   007A F8 02              3828 	lda	hl,2(sp)
   007C 2A                 3829 	ld	a,(hl+)
   007D 66                 3830 	ld	h,(hl)
   007E 6F                 3831 	ld	l,a
   007F E5                 3832 	push	hl
                           3833 ; genIpush
                           3834 ; AOP_STK for _playermove_indexTy_1_1
   0080 F8 06              3835 	lda	hl,6(sp)
   0082 2A                 3836 	ld	a,(hl+)
   0083 66                 3837 	ld	h,(hl)
   0084 6F                 3838 	ld	l,a
   0085 E5                 3839 	push	hl
                           3840 ; genIpush
                           3841 ; AOP_STK for _playermove_indexTx_1_1
   0086 F8 0A              3842 	lda	hl,10(sp)
   0088 2A                 3843 	ld	a,(hl+)
   0089 66                 3844 	ld	h,(hl)
   008A 6F                 3845 	ld	l,a
   008B E5                 3846 	push	hl
                           3847 ; genIpush
   008C 21 43 02           3848 	ld	hl,#__str_2 + 0
   008F E5                 3849 	push	hl
                           3850 ; genCall
   0090 CD 00 00           3851 	call	_printf
   0093 E8 08              3852 	lda	sp,8(sp)
                           3853 ; genLabel
   0095                    3854 00102$:
                           3855 ;	main.c 44
                           3856 ; genPlus
                           3857 ; AOP_STK for _playermove_indexT_1_1
                           3858 ;	genPlusIncr failed
   0095 11 00 00           3859 	ld	de,#_map1 + 0
   0098 F8 02              3860 	lda	hl,2(sp)
   009A 2A                 3861 	ld	a,(hl+)
   009B 66                 3862 	ld	h,(hl)
   009C 6F                 3863 	ld	l,a
   009D 19                 3864 	add	hl,de
   009E 5D                 3865 	ld	e,l
   009F 54                 3866 	ld	d,h
                           3867 ; genPointerGet
   00A0 1A                 3868 	ld	a,(de)
   00A1 4F                 3869 	ld	c,a
                           3870 ; genPointerGet
   00A2 11 34 02           3871 	ld	de,#_blankmap + 0
   00A5 1A                 3872 	ld	a,(de)
                           3873 ; genCmpEq
   00A6 B9                 3874 	cp	c ; 5
   00A7 20 04              3875 	jr	nz,00109$
   00A9 3E 01              3876 	ld	a,#0x01
   00AB 18 01              3877 	jr	00110$
   00AD                    3878 00109$:
   00AD AF                 3879 	xor	a,a
   00AE                    3880 00110$:
   00AE 47                 3881 	ld	b,a
                           3882 ;	main.c 46
                           3883 ; genCmpEq
   00AF 79                 3884 	ld	a,c ; 2
   00B0 FE 0F              3885 	cp	a,#0x0F
   00B2 C2 B7 00           3886 	jp	nz,00111$
   00B5 18 03              3887 	jr	00112$
   00B7                    3888 00111$:
   00B7 C3 BF 00           3889 	jp	00104$
   00BA                    3890 00112$:
                           3891 ;	main.c 47
                           3892 ; genRet
   00BA 1E 02              3893 	ld	e,#0x02
   00BC C3 C0 00           3894 	jp	00105$
                           3895 ; genLabel
   00BF                    3896 00104$:
                           3897 ;	main.c 51
                           3898 ; genRet
   00BF 58                 3899 	ld	e,b
                           3900 ; genLabel
   00C0                    3901 00105$:
                           3902 ; genEndFunction
   00C0 E8 08              3903 	lda	sp,8(sp)
   00C2 C1                 3904 	pop	bc
   00C3 C9                 3905 	ret
   00C4                    3906 ___playermove_end:
   00C4                    3907 _Ghost:
   00C4 00                 3908 	.db #0x00
   00C5 00                 3909 	.db #0x00
   00C6 38                 3910 	.db #0x38
   00C7 04                 3911 	.db #0x04
   00C8 7C                 3912 	.db #0x7C
   00C9 02                 3913 	.db #0x02
   00CA C8                 3914 	.db #0xC8
   00CB 01                 3915 	.db #0x01
   00CC DC                 3916 	.db #0xDC
   00CD 15                 3917 	.db #0x15
   00CE FC                 3918 	.db #0xFC
   00CF 03                 3919 	.db #0x03
   00D0 FC                 3920 	.db #0xFC
   00D1 03                 3921 	.db #0x03
   00D2 B4                 3922 	.db #0xB4
   00D3 03                 3923 	.db #0x03
   00D4                    3924 _boy1:
   00D4 3C                 3925 	.db #0x3C
   00D5 3C                 3926 	.db #0x3C
   00D6 7E                 3927 	.db #0x7E
   00D7 62                 3928 	.db #0x62
   00D8 7E                 3929 	.db #0x7E
   00D9 54                 3930 	.db #0x54
   00DA 7E                 3931 	.db #0x7E
   00DB 14                 3932 	.db #0x14
   00DC 3C                 3933 	.db #0x3C
   00DD 00                 3934 	.db #0x00
   00DE 00                 3935 	.db #0x00
   00DF 3C                 3936 	.db #0x3C
   00E0 24                 3937 	.db #0x24
   00E1 18                 3938 	.db #0x18
   00E2 18                 3939 	.db #0x18
   00E3 18                 3940 	.db #0x18
   00E4                    3941 _boy2:
   00E4 18                 3942 	.db #0x18
   00E5 18                 3943 	.db #0x18
   00E6 24                 3944 	.db #0x24
   00E7 18                 3945 	.db #0x18
   00E8 00                 3946 	.db #0x00
   00E9 3C                 3947 	.db #0x3C
   00EA 3C                 3948 	.db #0x3C
   00EB 00                 3949 	.db #0x00
   00EC 7E                 3950 	.db #0x7E
   00ED 14                 3951 	.db #0x14
   00EE 7E                 3952 	.db #0x7E
   00EF 54                 3953 	.db #0x54
   00F0 7E                 3954 	.db #0x7E
   00F1 62                 3955 	.db #0x62
   00F2 3C                 3956 	.db #0x3C
   00F3 3C                 3957 	.db #0x3C
   00F4                    3958 _boy3:
   00F4 18                 3959 	.db #0x18
   00F5 18                 3960 	.db #0x18
   00F6 24                 3961 	.db #0x24
   00F7 18                 3962 	.db #0x18
   00F8 00                 3963 	.db #0x00
   00F9 3C                 3964 	.db #0x3C
   00FA 3C                 3965 	.db #0x3C
   00FB 00                 3966 	.db #0x00
   00FC 7E                 3967 	.db #0x7E
   00FD 28                 3968 	.db #0x28
   00FE 7E                 3969 	.db #0x7E
   00FF 2A                 3970 	.db #0x2A
   0100 7E                 3971 	.db #0x7E
   0101 46                 3972 	.db #0x46
   0102 3C                 3973 	.db #0x3C
   0103 3C                 3974 	.db #0x3C
   0104                    3975 _boy4:
   0104 3C                 3976 	.db #0x3C
   0105 3C                 3977 	.db #0x3C
   0106 7E                 3978 	.db #0x7E
   0107 46                 3979 	.db #0x46
   0108 7E                 3980 	.db #0x7E
   0109 2A                 3981 	.db #0x2A
   010A 7E                 3982 	.db #0x7E
   010B 28                 3983 	.db #0x28
   010C 3C                 3984 	.db #0x3C
   010D 00                 3985 	.db #0x00
   010E 00                 3986 	.db #0x00
   010F 3C                 3987 	.db #0x3C
   0110 24                 3988 	.db #0x24
   0111 18                 3989 	.db #0x18
   0112 18                 3990 	.db #0x18
   0113 18                 3991 	.db #0x18
   0114                    3992 _doggo:
   0114 00                 3993 	.db #0x00
   0115 00                 3994 	.db #0x00
   0116 14                 3995 	.db #0x14
   0117 14                 3996 	.db #0x14
   0118 1C                 3997 	.db #0x1C
   0119 1C                 3998 	.db #0x1C
   011A 9C                 3999 	.db #0x9C
   011B 88                 4000 	.db #0x88
   011C 7C                 4001 	.db #0x7C
   011D 7C                 4002 	.db #0x7C
   011E 7C                 4003 	.db #0x7C
   011F 7C                 4004 	.db #0x7C
   0120 54                 4005 	.db #0x54
   0121 54                 4006 	.db #0x54
   0122 54                 4007 	.db #0x54
   0123 54                 4008 	.db #0x54
   0124                    4009 _key:
   0124 00                 4010 	.db #0x00
   0125 38                 4011 	.db #0x38
   0126 28                 4012 	.db #0x28
   0127 44                 4013 	.db #0x44
   0128 28                 4014 	.db #0x28
   0129 44                 4015 	.db #0x44
   012A 00                 4016 	.db #0x00
   012B 38                 4017 	.db #0x38
   012C 00                 4018 	.db #0x00
   012D 10                 4019 	.db #0x10
   012E 00                 4020 	.db #0x00
   012F 18                 4021 	.db #0x18
   0130 00                 4022 	.db #0x00
   0131 10                 4023 	.db #0x10
   0132 00                 4024 	.db #0x00
   0133 1C                 4025 	.db #0x1C
   0134                    4026 _bubbles:
   0134 00                 4027 	.db #0x00
   0135 00                 4028 	.db #0x00
   0136 00                 4029 	.db #0x00
   0137 00                 4030 	.db #0x00
   0138 00                 4031 	.db #0x00
   0139 00                 4032 	.db #0x00
   013A 00                 4033 	.db #0x00
   013B 00                 4034 	.db #0x00
   013C 00                 4035 	.db #0x00
   013D 00                 4036 	.db #0x00
   013E 00                 4037 	.db #0x00
   013F 00                 4038 	.db #0x00
   0140 00                 4039 	.db #0x00
   0141 00                 4040 	.db #0x00
   0142 00                 4041 	.db #0x00
   0143 00                 4042 	.db #0x00
   0144 3C                 4043 	.db #0x3C
   0145 3C                 4044 	.db #0x3C
   0146 66                 4045 	.db #0x66
   0147 66                 4046 	.db #0x66
   0148 CF                 4047 	.db #0xCF
   0149 C3                 4048 	.db #0xC3
   014A 9F                 4049 	.db #0x9F
   014B 81                 4050 	.db #0x81
   014C B9                 4051 	.db #0xB9
   014D 81                 4052 	.db #0x81
   014E F3                 4053 	.db #0xF3
   014F C3                 4054 	.db #0xC3
   0150 76                 4055 	.db #0x76
   0151 66                 4056 	.db #0x66
   0152 3C                 4057 	.db #0x3C
   0153 3C                 4058 	.db #0x3C
   0154 00                 4059 	.db #0x00
   0155 00                 4060 	.db #0x00
   0156 28                 4061 	.db #0x28
   0157 28                 4062 	.db #0x28
   0158 38                 4063 	.db #0x38
   0159 38                 4064 	.db #0x38
   015A 39                 4065 	.db #0x39
   015B 11                 4066 	.db #0x11
   015C 3E                 4067 	.db #0x3E
   015D 3E                 4068 	.db #0x3E
   015E 3E                 4069 	.db #0x3E
   015F 3E                 4070 	.db #0x3E
   0160 2A                 4071 	.db #0x2A
   0161 2A                 4072 	.db #0x2A
   0162 2A                 4073 	.db #0x2A
   0163 2A                 4074 	.db #0x2A
   0164 00                 4075 	.db #0x00
   0165 00                 4076 	.db #0x00
   0166 28                 4077 	.db #0x28
   0167 28                 4078 	.db #0x28
   0168 38                 4079 	.db #0x38
   0169 38                 4080 	.db #0x38
   016A 39                 4081 	.db #0x39
   016B 19                 4082 	.db #0x19
   016C 3E                 4083 	.db #0x3E
   016D 3E                 4084 	.db #0x3E
   016E 3E                 4085 	.db #0x3E
   016F 3E                 4086 	.db #0x3E
   0170 2A                 4087 	.db #0x2A
   0171 2A                 4088 	.db #0x2A
   0172 2A                 4089 	.db #0x2A
   0173 2A                 4090 	.db #0x2A
   0174 7F                 4091 	.db #0x7F
   0175 7F                 4092 	.db #0x7F
   0176 7F                 4093 	.db #0x7F
   0177 41                 4094 	.db #0x41
   0178 6B                 4095 	.db #0x6B
   0179 55                 4096 	.db #0x55
   017A 7F                 4097 	.db #0x7F
   017B 41                 4098 	.db #0x41
   017C 6B                 4099 	.db #0x6B
   017D 55                 4100 	.db #0x55
   017E 7F                 4101 	.db #0x7F
   017F 43                 4102 	.db #0x43
   0180 7F                 4103 	.db #0x7F
   0181 41                 4104 	.db #0x41
   0182 7F                 4105 	.db #0x7F
   0183 41                 4106 	.db #0x41
   0184 1E                 4107 	.db #0x1E
   0185 1E                 4108 	.db #0x1E
   0186 3F                 4109 	.db #0x3F
   0187 21                 4110 	.db #0x21
   0188 7F                 4111 	.db #0x7F
   0189 6F                 4112 	.db #0x6F
   018A B8                 4113 	.db #0xB8
   018B A8                 4114 	.db #0xA8
   018C BF                 4115 	.db #0xBF
   018D AF                 4116 	.db #0xAF
   018E BF                 4117 	.db #0xBF
   018F A0                 4118 	.db #0xA0
   0190 7F                 4119 	.db #0x7F
   0191 6E                 4120 	.db #0x6E
   0192 3B                 4121 	.db #0x3B
   0193 2A                 4122 	.db #0x2A
   0194 1F                 4123 	.db #0x1F
   0195 1F                 4124 	.db #0x1F
   0196 15                 4125 	.db #0x15
   0197 15                 4126 	.db #0x15
   0198 0A                 4127 	.db #0x0A
   0199 0A                 4128 	.db #0x0A
   019A 0A                 4129 	.db #0x0A
   019B 0A                 4130 	.db #0x0A
   019C FF                 4131 	.db #0xFF
   019D FF                 4132 	.db #0xFF
   019E BF                 4133 	.db #0xBF
   019F A0                 4134 	.db #0xA0
   01A0 7F                 4135 	.db #0x7F
   01A1 6E                 4136 	.db #0x6E
   01A2 3B                 4137 	.db #0x3B
   01A3 2A                 4138 	.db #0x2A
   01A4 00                 4139 	.db #0x00
   01A5 1C                 4140 	.db #0x1C
   01A6 00                 4141 	.db #0x00
   01A7 22                 4142 	.db #0x22
   01A8 00                 4143 	.db #0x00
   01A9 36                 4144 	.db #0x36
   01AA 00                 4145 	.db #0x00
   01AB 1C                 4146 	.db #0x1C
   01AC 00                 4147 	.db #0x00
   01AD 08                 4148 	.db #0x08
   01AE 00                 4149 	.db #0x00
   01AF 0E                 4150 	.db #0x0E
   01B0 00                 4151 	.db #0x00
   01B1 08                 4152 	.db #0x08
   01B2 00                 4153 	.db #0x00
   01B3 0E                 4154 	.db #0x0E
   01B4 66                 4155 	.db #0x66
   01B5 66                 4156 	.db #0x66
   01B6 99                 4157 	.db #0x99
   01B7 FF                 4158 	.db #0xFF
   01B8 81                 4159 	.db #0x81
   01B9 FF                 4160 	.db #0xFF
   01BA 81                 4161 	.db #0x81
   01BB FD                 4162 	.db #0xFD
   01BC C3                 4163 	.db #0xC3
   01BD FB                 4164 	.db #0xFB
   01BE 66                 4165 	.db #0x66
   01BF 7E                 4166 	.db #0x7E
   01C0 3C                 4167 	.db #0x3C
   01C1 3C                 4168 	.db #0x3C
   01C2 18                 4169 	.db #0x18
   01C3 18                 4170 	.db #0x18
   01C4 00                 4171 	.db #0x00
   01C5 00                 4172 	.db #0x00
   01C6 99                 4173 	.db #0x99
   01C7 66                 4174 	.db #0x66
   01C8 99                 4175 	.db #0x99
   01C9 66                 4176 	.db #0x66
   01CA 99                 4177 	.db #0x99
   01CB 66                 4178 	.db #0x66
   01CC FF                 4179 	.db #0xFF
   01CD 18                 4180 	.db #0x18
   01CE FF                 4181 	.db #0xFF
   01CF 18                 4182 	.db #0x18
   01D0 81                 4183 	.db #0x81
   01D1 7E                 4184 	.db #0x7E
   01D2 FF                 4185 	.db #0xFF
   01D3 00                 4186 	.db #0x00
   01D4 7E                 4187 	.db #0x7E
   01D5 7E                 4188 	.db #0x7E
   01D6 DF                 4189 	.db #0xDF
   01D7 E3                 4190 	.db #0xE3
   01D8 B7                 4191 	.db #0xB7
   01D9 C9                 4192 	.db #0xC9
   01DA AB                 4193 	.db #0xAB
   01DB D5                 4194 	.db #0xD5
   01DC B7                 4195 	.db #0xB7
   01DD C9                 4196 	.db #0xC9
   01DE AB                 4197 	.db #0xAB
   01DF D5                 4198 	.db #0xD5
   01E0 C7                 4199 	.db #0xC7
   01E1 FB                 4200 	.db #0xFB
   01E2 7E                 4201 	.db #0x7E
   01E3 7E                 4202 	.db #0x7E
   01E4 18                 4203 	.db #0x18
   01E5 18                 4204 	.db #0x18
   01E6 76                 4205 	.db #0x76
   01E7 6E                 4206 	.db #0x6E
   01E8 D7                 4207 	.db #0xD7
   01E9 EB                 4208 	.db #0xEB
   01EA D5                 4209 	.db #0xD5
   01EB AB                 4210 	.db #0xAB
   01EC D5                 4211 	.db #0xD5
   01ED AB                 4212 	.db #0xAB
   01EE D5                 4213 	.db #0xD5
   01EF AB                 4214 	.db #0xAB
   01F0 D5                 4215 	.db #0xD5
   01F1 AB                 4216 	.db #0xAB
   01F2 D5                 4217 	.db #0xD5
   01F3 AB                 4218 	.db #0xAB
   01F4 00                 4219 	.db #0x00
   01F5 38                 4220 	.db #0x38
   01F6 28                 4221 	.db #0x28
   01F7 44                 4222 	.db #0x44
   01F8 28                 4223 	.db #0x28
   01F9 44                 4224 	.db #0x44
   01FA 00                 4225 	.db #0x00
   01FB 38                 4226 	.db #0x38
   01FC 00                 4227 	.db #0x00
   01FD 10                 4228 	.db #0x10
   01FE 00                 4229 	.db #0x00
   01FF 18                 4230 	.db #0x18
   0200 00                 4231 	.db #0x00
   0201 10                 4232 	.db #0x10
   0202 00                 4233 	.db #0x00
   0203 1C                 4234 	.db #0x1C
   0204 20                 4235 	.db #0x20
   0205 20                 4236 	.db #0x20
   0206 30                 4237 	.db #0x30
   0207 30                 4238 	.db #0x30
   0208 38                 4239 	.db #0x38
   0209 38                 4240 	.db #0x38
   020A FC                 4241 	.db #0xFC
   020B FC                 4242 	.db #0xFC
   020C FC                 4243 	.db #0xFC
   020D FC                 4244 	.db #0xFC
   020E 38                 4245 	.db #0x38
   020F 38                 4246 	.db #0x38
   0210 30                 4247 	.db #0x30
   0211 30                 4248 	.db #0x30
   0212 20                 4249 	.db #0x20
   0213 20                 4250 	.db #0x20
   0214 3C                 4251 	.db #0x3C
   0215 3C                 4252 	.db #0x3C
   0216 7E                 4253 	.db #0x7E
   0217 66                 4254 	.db #0x66
   0218 F3                 4255 	.db #0xF3
   0219 C3                 4256 	.db #0xC3
   021A E1                 4257 	.db #0xE1
   021B 81                 4258 	.db #0x81
   021C C7                 4259 	.db #0xC7
   021D 81                 4260 	.db #0x81
   021E CF                 4261 	.db #0xCF
   021F C3                 4262 	.db #0xC3
   0220 6E                 4263 	.db #0x6E
   0221 66                 4264 	.db #0x66
   0222 3C                 4265 	.db #0x3C
   0223 3C                 4266 	.db #0x3C
   0224 00                 4267 	.db #0x00
   0225 00                 4268 	.db #0x00
   0226 00                 4269 	.db #0x00
   0227 00                 4270 	.db #0x00
   0228 00                 4271 	.db #0x00
   0229 00                 4272 	.db #0x00
   022A 00                 4273 	.db #0x00
   022B 00                 4274 	.db #0x00
   022C 00                 4275 	.db #0x00
   022D 00                 4276 	.db #0x00
   022E 00                 4277 	.db #0x00
   022F 00                 4278 	.db #0x00
   0230 00                 4279 	.db #0x00
   0231 00                 4280 	.db #0x00
   0232 00                 4281 	.db #0x00
   0233 00                 4282 	.db #0x00
   0234                    4283 _blankmap:
   0234 00                 4284 	.db #0x00
   0235 0C                 4285 	.db #0x0C
   0236 0F                 4286 	.db #0x0F
   0237                    4287 __str_0:
   0237 25 75 20           4288 	.ascii "%u "
   023A 0A                 4289 	.db 0x0A
   023B 00                 4290 	.db 0x00
   023C                    4291 __str_1:
   023C 25 75 20 25 75     4292 	.ascii "%u %u"
   0241 0A                 4293 	.db 0x0A
   0242 00                 4294 	.db 0x00
   0243                    4295 __str_2:
   0243 25 75 20 25 75 20  4296 	.ascii "%u %u %u"
        25 75
   024B 0A                 4297 	.db 0x0A
   024C 00                 4298 	.db 0x00
                           4299 ;	main.c 54
                           4300 ; genLabel
                           4301 ; genFunction
                           4302 ;	---------------------------------
                           4303 ; Function performantdelay
                           4304 ; ---------------------------------
   024D                    4305 ___performantdelay_start:
   024D                    4306 _performantdelay:
   024D C5                 4307 	push	bc
                           4308 	
                           4309 ;	main.c 56
                           4310 ; genAssign
   024E 0E 00              4311 	ld	c,#0x00
                           4312 ; genLabel
   0250                    4313 00101$:
                           4314 ; genCmpLt
                           4315 ; AOP_STK for 
   0250 AF                 4316 	xor	a,a
   0251 79                 4317 	ld	a,c
   0252 F8 04              4318 	lda	hl,4(sp)
   0254 9E                 4319 	sbc	a,(hl) ; 2
   0255 D2 5F 02           4320 	jp	nc,00105$
                           4321 ;	main.c 57
                           4322 ; genCall
   0258 CD 00 00           4323 	call	_wait_vbl_done
                           4324 ;	main.c 56
                           4325 ; genPlus
                           4326 ; genPlusIncr
   025B 0C                 4327 	inc	c
                           4328 ; genGoto
   025C C3 50 02           4329 	jp	00101$
                           4330 ; genLabel
   025F                    4331 00105$:
                           4332 ; genEndFunction
                           4333 	
   025F C1                 4334 	pop	bc
   0260 C9                 4335 	ret
   0261                    4336 ___performantdelay_end:
                           4337 ;	main.c 61
                           4338 ; genLabel
                           4339 ; genFunction
                           4340 ;	---------------------------------
                           4341 ; Function main
                           4342 ; ---------------------------------
   0261                    4343 ___main_start:
   0261                    4344 _main:
   0261 C5                 4345 	push	bc
                           4346 	
                           4347 ;	main.c 67
                           4348 ; genCall
   0262 CD 7C 0C           4349 	call	_load_game_tiles
                           4350 ;	main.c 69
                           4351 ; genAssign
   0265 01 73 02           4352 	ld	bc,#_vblint + 0
                           4353 ; genIpush
   0268 C5                 4354 	push	bc
                           4355 ; genCall
   0269 CD 00 00           4356 	call	_add_VBL
   026C E8 02              4357 	lda	sp,2(sp)
                           4358 ;	main.c 72
                           4359 ; genCall
   026E CD 30 0C           4360 	call	_do_gameplay
                           4361 ; genLabel
   0271                    4362 00101$:
                           4363 ; genEndFunction
                           4364 	
   0271 C1                 4365 	pop	bc
   0272 C9                 4366 	ret
   0273                    4367 ___main_end:
                           4368 ;	main.c 75
                           4369 ; genLabel
                           4370 ; genFunction
                           4371 ;	---------------------------------
                           4372 ; Function vblint
                           4373 ; ---------------------------------
   0273                    4374 ___vblint_start:
   0273                    4375 _vblint:
                           4376 	
                           4377 ;	main.c 78
                           4378 ; genCall
   0273 CD 1E 03           4379 	call	_update_graphics
                           4380 ;	main.c 81
                           4381 ; genCmpEq
                           4382 ; AOP_HL for _player_z
   0276 21 8C 03           4383 	ld	hl,#_player_z + 0
   0279 2A                 4384 	ld	a,(hl+)
   027A B6                 4385 	or	a,(hl)
   027B C2 80 02           4386 	jp	nz,00121$
   027E 18 03              4387 	jr	00122$
   0280                    4388 00121$:
   0280 C3 C6 02           4389 	jp	00106$
   0283                    4390 00122$:
                           4391 ;	main.c 82
                           4392 ; genCmpEq
                           4393 ; AOP_HL for _player_o
   0283 21 8E 03           4394 	ld	hl,#_player_o + 0
   0286 2A                 4395 	ld	a,(hl+)
   0287 B6                 4396 	or	a,(hl)
   0288 C2 8D 02           4397 	jp	nz,00123$
   028B 18 03              4398 	jr	00124$
   028D                    4399 00123$:
   028D C3 A1 02           4400 	jp	00102$
   0290                    4401 00124$:
                           4402 ;	main.c 83
                           4403 ; genIpush
   0290 21 E4 00           4404 	ld	hl,#_boy2 + 0
   0293 E5                 4405 	push	hl
                           4406 ; genIpush
   0294 3E 01              4407 	ld	a,#0x01
   0296 F5                 4408 	push	af
   0297 33                 4409 	inc	sp
                           4410 ; genIpush
   0298 3E 00              4411 	ld	a,#0x00
   029A F5                 4412 	push	af
   029B 33                 4413 	inc	sp
                           4414 ; genCall
   029C CD 00 00           4415 	call	_set_sprite_data
   029F E8 04              4416 	lda	sp,4(sp)
                           4417 ; genLabel
   02A1                    4418 00102$:
                           4419 ;	main.c 85
                           4420 ; genCmpEq
                           4421 ; AOP_HL for _player_o
   02A1 21 8E 03           4422 	ld	hl,#_player_o + 0
   02A4 7E                 4423 	ld	a,(hl) ; 2
   02A5 FE 01              4424 	cp	a,#0x01
   02A7 C2 B2 02           4425 	jp	nz,00125$
   02AA 23                 4426 	inc	hl
   02AB 7E                 4427 	ld	a,(hl) ; 2
                           4428 ; Rule 3
   02AC B7                 4429 	or	a,a
   02AD C2 B2 02           4430 	jp	nz,00125$
   02B0 18 03              4431 	jr	00126$
   02B2                    4432 00125$:
   02B2 C3 C6 02           4433 	jp	00106$
   02B5                    4434 00126$:
                           4435 ;	main.c 86
                           4436 ; genIpush
   02B5 21 D4 00           4437 	ld	hl,#_boy1 + 0
   02B8 E5                 4438 	push	hl
                           4439 ; genIpush
   02B9 3E 01              4440 	ld	a,#0x01
   02BB F5                 4441 	push	af
   02BC 33                 4442 	inc	sp
                           4443 ; genIpush
   02BD 3E 00              4444 	ld	a,#0x00
   02BF F5                 4445 	push	af
   02C0 33                 4446 	inc	sp
                           4447 ; genCall
   02C1 CD 00 00           4448 	call	_set_sprite_data
   02C4 E8 04              4449 	lda	sp,4(sp)
                           4450 ; genLabel
   02C6                    4451 00106$:
                           4452 ;	main.c 89
                           4453 ; genCmpEq
                           4454 ; AOP_HL for _player_z
   02C6 21 8C 03           4455 	ld	hl,#_player_z + 0
   02C9 7E                 4456 	ld	a,(hl) ; 2
   02CA FE 01              4457 	cp	a,#0x01
   02CC C2 D7 02           4458 	jp	nz,00127$
   02CF 23                 4459 	inc	hl
   02D0 7E                 4460 	ld	a,(hl) ; 2
                           4461 ; Rule 3
   02D1 B7                 4462 	or	a,a
   02D2 C2 D7 02           4463 	jp	nz,00127$
   02D5 18 03              4464 	jr	00128$
   02D7                    4465 00127$:
   02D7 C3 1D 03           4466 	jp	00113$
   02DA                    4467 00128$:
                           4468 ;	main.c 90
                           4469 ; genCmpEq
                           4470 ; AOP_HL for _player_o
   02DA 21 8E 03           4471 	ld	hl,#_player_o + 0
   02DD 2A                 4472 	ld	a,(hl+)
   02DE B6                 4473 	or	a,(hl)
   02DF C2 E4 02           4474 	jp	nz,00129$
   02E2 18 03              4475 	jr	00130$
   02E4                    4476 00129$:
   02E4 C3 F8 02           4477 	jp	00108$
   02E7                    4478 00130$:
                           4479 ;	main.c 91
                           4480 ; genIpush
   02E7 21 F4 00           4481 	ld	hl,#_boy3 + 0
   02EA E5                 4482 	push	hl
                           4483 ; genIpush
   02EB 3E 01              4484 	ld	a,#0x01
   02ED F5                 4485 	push	af
   02EE 33                 4486 	inc	sp
                           4487 ; genIpush
   02EF 3E 00              4488 	ld	a,#0x00
   02F1 F5                 4489 	push	af
   02F2 33                 4490 	inc	sp
                           4491 ; genCall
   02F3 CD 00 00           4492 	call	_set_sprite_data
   02F6 E8 04              4493 	lda	sp,4(sp)
                           4494 ; genLabel
   02F8                    4495 00108$:
                           4496 ;	main.c 93
                           4497 ; genCmpEq
                           4498 ; AOP_HL for _player_o
   02F8 21 8E 03           4499 	ld	hl,#_player_o + 0
   02FB 7E                 4500 	ld	a,(hl) ; 2
   02FC FE 01              4501 	cp	a,#0x01
   02FE C2 09 03           4502 	jp	nz,00131$
   0301 23                 4503 	inc	hl
   0302 7E                 4504 	ld	a,(hl) ; 2
                           4505 ; Rule 3
   0303 B7                 4506 	or	a,a
   0304 C2 09 03           4507 	jp	nz,00131$
   0307 18 03              4508 	jr	00132$
   0309                    4509 00131$:
   0309 C3 1D 03           4510 	jp	00113$
   030C                    4511 00132$:
                           4512 ;	main.c 94
                           4513 ; genIpush
   030C 21 04 01           4514 	ld	hl,#_boy4 + 0
   030F E5                 4515 	push	hl
                           4516 ; genIpush
   0310 3E 01              4517 	ld	a,#0x01
   0312 F5                 4518 	push	af
   0313 33                 4519 	inc	sp
                           4520 ; genIpush
   0314 3E 00              4521 	ld	a,#0x00
   0316 F5                 4522 	push	af
   0317 33                 4523 	inc	sp
                           4524 ; genCall
   0318 CD 00 00           4525 	call	_set_sprite_data
   031B E8 04              4526 	lda	sp,4(sp)
                           4527 ; genLabel
   031D                    4528 00113$:
                           4529 ; genEndFunction
                           4530 	
   031D C9                 4531 	ret
   031E                    4532 ___vblint_end:
                           4533 ;	main.c 109
                           4534 ; genLabel
                           4535 ; genFunction
                           4536 ;	---------------------------------
                           4537 ; Function update_graphics
                           4538 ; ---------------------------------
   031E                    4539 ___update_graphics_start:
   031E                    4540 _update_graphics:
   031E C5                 4541 	push	bc
                           4542 	
                           4543 ;	main.c 111
                           4544 ; genCast
                           4545 ; AOP_HL for _player_y
   031F 21 8A 03           4546 	ld	hl,#_player_y + 0
   0322 4E                 4547 	ld	c,(hl)
                           4548 ; genCast
                           4549 ; AOP_HL for _player_x
   0323 21 88 03           4550 	ld	hl,#_player_x + 0
   0326 46                 4551 	ld	b,(hl)
                           4552 ; genIpush
   0327 79                 4553 	ld	a,c
   0328 F5                 4554 	push	af
   0329 33                 4555 	inc	sp
                           4556 ; genIpush
   032A 78                 4557 	ld	a,b
   032B F5                 4558 	push	af
   032C 33                 4559 	inc	sp
                           4560 ; genIpush
   032D 3E 00              4561 	ld	a,#0x00
   032F F5                 4562 	push	af
   0330 33                 4563 	inc	sp
                           4564 ; genCall
   0331 CD 00 00           4565 	call	_move_sprite
   0334 E8 03              4566 	lda	sp,3(sp)
                           4567 ; genLabel
   0336                    4568 00101$:
                           4569 ; genEndFunction
                           4570 	
   0336 C1                 4571 	pop	bc
   0337 C9                 4572 	ret
   0338                    4573 ___update_graphics_end:
                           4574 ;	main.c 118
                           4575 ; genLabel
                           4576 ; genFunction
                           4577 ;	---------------------------------
                           4578 ; Function update_joypad
                           4579 ; ---------------------------------
   0338                    4580 ___update_joypad_start:
   0338                    4581 _update_joypad:
   0338 C5                 4582 	push	bc
   0339 E8 FA              4583 	lda	sp,-6(sp)
                           4584 ;	main.c 119
                           4585 ; genCall
   033B CD 00 00           4586 	call	_joypad
                           4587 ; AOP_HL for _joypad_state
   033E 21 85 03           4588 	ld	hl,#_joypad_state + 0
   0341 73                 4589 	ld	(hl),e
                           4590 ;	main.c 120
                           4591 ; genCmpEq
                           4592 ; AOP_HL for _playing
   0342 21 84 03           4593 	ld	hl,#_playing + 0
   0345 7E                 4594 	ld	a,(hl) ; 2
   0346 FE 01              4595 	cp	a,#0x01
   0348 C2 4D 03           4596 	jp	nz,00136$
   034B 18 03              4597 	jr	00137$
   034D                    4598 00136$:
   034D C3 7D 05           4599 	jp	00123$
   0350                    4600 00137$:
                           4601 ;	main.c 121
                           4602 ; genAnd
                           4603 ; AOP_HL for _joypad_state
   0350 21 85 03           4604 	ld	hl,#_joypad_state + 0
   0353 7E                 4605 	ld	a,(hl)
   0354 CB 67              4606 	bit	4,a
   0356 CA 66 03           4607 	jp	z,00102$
                           4608 ;	main.c 122
                           4609 ; genAssign
                           4610 ; AOP_HL for _player_z
   0359 21 8C 03           4611 	ld	hl,#_player_z + 0
   035C 36 01              4612 	ld	(hl),#0x01
   035E 23                 4613 	inc	hl
   035F 36 00              4614 	ld	(hl),#0x00
                           4615 ;	main.c 123
                           4616 ; genAssign
                           4617 ; AOP_HL for _debug
   0361 21 86 03           4618 	ld	hl,#_debug + 0
   0364 36 01              4619 	ld	(hl),#0x01
                           4620 ; genLabel
   0366                    4621 00102$:
                           4622 ;	main.c 126
                           4623 ; genAnd
                           4624 ; AOP_HL for _joypad_state
   0366 21 85 03           4625 	ld	hl,#_joypad_state + 0
   0369 7E                 4626 	ld	a,(hl)
   036A CB 4F              4627 	bit	1,a
   036C CA D1 03           4628 	jp	z,00106$
                           4629 ;	main.c 127
                           4630 ; genAssign
                           4631 ; AOP_HL for _player_z
   036F 21 8C 03           4632 	ld	hl,#_player_z + 0
   0372 36 01              4633 	ld	(hl),#0x01
   0374 23                 4634 	inc	hl
   0375 36 00              4635 	ld	(hl),#0x00
                           4636 ;	main.c 128
                           4637 ; genCast
                           4638 ; AOP_HL for _player_y
                           4639 ; AOP_STK for _update_joypad_sloc0_1_0
   0377 21 8A 03           4640 	ld	hl,#_player_y + 0
   037A 7E                 4641 	ld	a,(hl)
   037B F8 05              4642 	lda	hl,5(sp)
   037D 77                 4643 	ld	(hl),a
                           4644 ; genMinus
                           4645 ; AOP_HL for _player_x
                           4646 ; AOP_STK for _update_joypad_sloc2_1_0
   037E 21 88 03           4647 	ld	hl,#_player_x + 0
   0381 5E                 4648 	ld	e,(hl)
   0382 23                 4649 	inc	hl
   0383 56                 4650 	ld	d,(hl)
   0384 21 08 00           4651 	ld	hl,#0x0008
   0387 7B                 4652 	ld	a,e
   0388 95                 4653 	sub	a,l
   0389 5F                 4654 	ld	e,a
   038A 7A                 4655 	ld	a,d
   038B 9C                 4656 	sbc	a,h
   038C F8 03              4657 	lda	hl,3(sp)
   038E 77                 4658 	ld	(hl),a
   038F 2B                 4659 	dec	hl
   0390 73                 4660 	ld	(hl),e
                           4661 ; genCast
                           4662 ; AOP_STK for _update_joypad_sloc2_1_0
                           4663 ; AOP_STK for _update_joypad_sloc1_1_0
   0391 2A                 4664 	ld	a,(hl+)
   0392 23                 4665 	inc	hl
                           4666 ; genIpush
                           4667 ; AOP_STK for _update_joypad_sloc0_1_0
   0393 22                 4668 	ld	(hl+),a
   0394 7E                 4669 	ld	a,(hl)
   0395 F5                 4670 	push	af
   0396 33                 4671 	inc	sp
                           4672 ; genIpush
                           4673 ; AOP_STK for _update_joypad_sloc1_1_0
   0397 2B                 4674 	dec	hl
   0398 7E                 4675 	ld	a,(hl)
   0399 F5                 4676 	push	af
   039A 33                 4677 	inc	sp
                           4678 ; genCall
   039B CD 00 00           4679 	call	_playermove
   039E 4B                 4680 	ld	c,e
   039F E8 02              4681 	lda	sp,2(sp)
                           4682 ; genIfx
                           4683 ; Removed redundent or a,a
   03A1 AF                 4684 	xor	a,a
   03A2 B1                 4685 	or	a,c
   03A3 CA D1 03           4686 	jp	z,00106$
                           4687 ;	main.c 129
                           4688 ; genCast
                           4689 ; AOP_HL for _player_x
                           4690 ; AOP_HL for _doggo_x
   03A6 21 88 03           4691 	ld	hl,#_player_x + 0
   03A9 7E                 4692 	ld	a,(hl)
   03AA 21 9A 03           4693 	ld	hl,#_doggo_x + 0
   03AD 77                 4694 	ld	(hl),a
                           4695 ;	main.c 130
                           4696 ; genAssign
                           4697 ; AOP_STK for _update_joypad_sloc0_1_0
                           4698 ; AOP_HL for _doggo_y
   03AE F8 05              4699 	lda	hl,5(sp)
   03B0 7E                 4700 	ld	a,(hl)
   03B1 21 9B 03           4701 	ld	hl,#_doggo_y + 0
   03B4 77                 4702 	ld	(hl),a
                           4703 ;	main.c 131
                           4704 ; genAssign
                           4705 ; AOP_STK for _update_joypad_sloc2_1_0
                           4706 ; AOP_HL for _player_x
   03B5 F8 02              4707 	lda	hl,2(sp)
   03B7 2A                 4708 	ld	a,(hl+)
   03B8 5E                 4709 	ld	e,(hl)
   03B9 21 88 03           4710 	ld	hl,#_player_x + 0
   03BC 22                 4711 	ld	(hl+),a
   03BD 73                 4712 	ld	(hl),e
                           4713 ;	main.c 132
                           4714 ; genCast
                           4715 ; AOP_HL for _player_x
   03BE 2B                 4716 	dec	hl
   03BF 4E                 4717 	ld	c,(hl)
                           4718 ; genIpush
                           4719 ; AOP_STK for _update_joypad_sloc0_1_0
   03C0 F8 05              4720 	lda	hl,5(sp)
   03C2 7E                 4721 	ld	a,(hl)
   03C3 F5                 4722 	push	af
   03C4 33                 4723 	inc	sp
                           4724 ; genIpush
   03C5 79                 4725 	ld	a,c
   03C6 F5                 4726 	push	af
   03C7 33                 4727 	inc	sp
                           4728 ; genIpush
   03C8 3E 00              4729 	ld	a,#0x00
   03CA F5                 4730 	push	af
   03CB 33                 4731 	inc	sp
                           4732 ; genCall
   03CC CD 00 00           4733 	call	_move_sprite
   03CF E8 03              4734 	lda	sp,3(sp)
                           4735 ; genLabel
   03D1                    4736 00106$:
                           4737 ;	main.c 136
                           4738 ; genAnd
                           4739 ; AOP_HL for _joypad_state
   03D1 21 85 03           4740 	ld	hl,#_joypad_state + 0
   03D4 7E                 4741 	ld	a,(hl)
   03D5 CB 47              4742 	bit	0,a
   03D7 CA 3E 04           4743 	jp	z,00110$
                           4744 ;	main.c 137
                           4745 ; genAssign
                           4746 ; AOP_HL for _player_z
   03DA 21 8C 03           4747 	ld	hl,#_player_z + 0
   03DD 36 00              4748 	ld	(hl),#0x00
   03DF 23                 4749 	inc	hl
   03E0 36 00              4750 	ld	(hl),#0x00
                           4751 ;	main.c 138
                           4752 ; genCast
                           4753 ; AOP_HL for _player_y
                           4754 ; AOP_STK for _update_joypad_sloc2_1_0
   03E2 21 8A 03           4755 	ld	hl,#_player_y + 0
   03E5 7E                 4756 	ld	a,(hl)
   03E6 F8 02              4757 	lda	hl,2(sp)
   03E8 77                 4758 	ld	(hl),a
                           4759 ; genPlus
                           4760 ; AOP_HL for _player_x
                           4761 ; AOP_STK for _update_joypad_sloc3_1_0
                           4762 ; genPlusIncr
                           4763 ;	genPlusIncr failed
   03E9 21 88 03           4764 	ld	hl,#_player_x + 0
   03EC 5E                 4765 	ld	e,(hl)
   03ED 23                 4766 	inc	hl
   03EE 56                 4767 	ld	d,(hl)
   03EF 21 08 00           4768 	ld	hl,#0x0008
   03F2 19                 4769 	add	hl,de
   03F3 7D                 4770 	ld	a,l
   03F4 54                 4771 	ld	d,h
   03F5 F8 00              4772 	lda	hl,0(sp)
   03F7 22                 4773 	ld	(hl+),a
   03F8 72                 4774 	ld	(hl),d
                           4775 ; genCast
                           4776 ; AOP_STK for _update_joypad_sloc3_1_0
                           4777 ; AOP_STK for _update_joypad_sloc1_1_0
   03F9 2B                 4778 	dec	hl
   03FA 7E                 4779 	ld	a,(hl)
   03FB F8 04              4780 	lda	hl,4(sp)
   03FD 77                 4781 	ld	(hl),a
                           4782 ; genIpush
                           4783 ; AOP_STK for _update_joypad_sloc2_1_0
   03FE 2B                 4784 	dec	hl
   03FF 2B                 4785 	dec	hl
   0400 7E                 4786 	ld	a,(hl)
   0401 F5                 4787 	push	af
   0402 33                 4788 	inc	sp
                           4789 ; genIpush
                           4790 ; AOP_STK for _update_joypad_sloc1_1_0
   0403 23                 4791 	inc	hl
   0404 23                 4792 	inc	hl
   0405 7E                 4793 	ld	a,(hl)
   0406 F5                 4794 	push	af
   0407 33                 4795 	inc	sp
                           4796 ; genCall
   0408 CD 00 00           4797 	call	_playermove
   040B 4B                 4798 	ld	c,e
   040C E8 02              4799 	lda	sp,2(sp)
                           4800 ; genIfx
                           4801 ; Removed redundent or a,a
   040E AF                 4802 	xor	a,a
   040F B1                 4803 	or	a,c
   0410 CA 3E 04           4804 	jp	z,00110$
                           4805 ;	main.c 139
                           4806 ; genCast
                           4807 ; AOP_HL for _player_x
                           4808 ; AOP_HL for _doggo_x
   0413 21 88 03           4809 	ld	hl,#_player_x + 0
   0416 7E                 4810 	ld	a,(hl)
   0417 21 9A 03           4811 	ld	hl,#_doggo_x + 0
   041A 77                 4812 	ld	(hl),a
                           4813 ;	main.c 140
                           4814 ; genAssign
                           4815 ; AOP_STK for _update_joypad_sloc2_1_0
                           4816 ; AOP_HL for _doggo_y
   041B F8 02              4817 	lda	hl,2(sp)
   041D 7E                 4818 	ld	a,(hl)
   041E 21 9B 03           4819 	ld	hl,#_doggo_y + 0
   0421 77                 4820 	ld	(hl),a
                           4821 ;	main.c 141
                           4822 ; genAssign
                           4823 ; AOP_STK for _update_joypad_sloc3_1_0
                           4824 ; AOP_HL for _player_x
   0422 F8 00              4825 	lda	hl,0(sp)
   0424 2A                 4826 	ld	a,(hl+)
   0425 5E                 4827 	ld	e,(hl)
   0426 21 88 03           4828 	ld	hl,#_player_x + 0
   0429 22                 4829 	ld	(hl+),a
   042A 73                 4830 	ld	(hl),e
                           4831 ;	main.c 142
                           4832 ; genCast
                           4833 ; AOP_HL for _player_x
   042B 2B                 4834 	dec	hl
   042C 4E                 4835 	ld	c,(hl)
                           4836 ; genIpush
                           4837 ; AOP_STK for _update_joypad_sloc2_1_0
   042D F8 02              4838 	lda	hl,2(sp)
   042F 7E                 4839 	ld	a,(hl)
   0430 F5                 4840 	push	af
   0431 33                 4841 	inc	sp
                           4842 ; genIpush
   0432 79                 4843 	ld	a,c
   0433 F5                 4844 	push	af
   0434 33                 4845 	inc	sp
                           4846 ; genIpush
   0435 3E 00              4847 	ld	a,#0x00
   0437 F5                 4848 	push	af
   0438 33                 4849 	inc	sp
                           4850 ; genCall
   0439 CD 00 00           4851 	call	_move_sprite
   043C E8 03              4852 	lda	sp,3(sp)
                           4853 ; genLabel
   043E                    4854 00110$:
                           4855 ;	main.c 146
                           4856 ; genAnd
                           4857 ; AOP_HL for _joypad_state
   043E 21 85 03           4858 	ld	hl,#_joypad_state + 0
   0441 7E                 4859 	ld	a,(hl)
   0442 CB 57              4860 	bit	2,a
   0444 CA 11 05           4861 	jp	z,00116$
                           4862 ;	main.c 147
                           4863 ; genAssign
                           4864 ; AOP_HL for _player_o
   0447 21 8E 03           4865 	ld	hl,#_player_o + 0
   044A 36 00              4866 	ld	(hl),#0x00
   044C 23                 4867 	inc	hl
   044D 36 00              4868 	ld	(hl),#0x00
                           4869 ;	main.c 148
                           4870 ; genMinus
                           4871 ; AOP_HL for _player_y
                           4872 ; AOP_STK for _update_joypad_sloc2_1_0
   044F 21 8A 03           4873 	ld	hl,#_player_y + 0
   0452 5E                 4874 	ld	e,(hl)
   0453 23                 4875 	inc	hl
   0454 56                 4876 	ld	d,(hl)
   0455 21 08 00           4877 	ld	hl,#0x0008
   0458 7B                 4878 	ld	a,e
   0459 95                 4879 	sub	a,l
   045A 5F                 4880 	ld	e,a
   045B 7A                 4881 	ld	a,d
   045C 9C                 4882 	sbc	a,h
   045D F8 03              4883 	lda	hl,3(sp)
   045F 77                 4884 	ld	(hl),a
   0460 2B                 4885 	dec	hl
   0461 73                 4886 	ld	(hl),e
                           4887 ; genCast
                           4888 ; AOP_STK for _update_joypad_sloc2_1_0
                           4889 ; AOP_STK for _update_joypad_sloc3_1_0
   0462 7E                 4890 	ld	a,(hl)
   0463 2B                 4891 	dec	hl
   0464 2B                 4892 	dec	hl
   0465 77                 4893 	ld	(hl),a
                           4894 ; genCast
                           4895 ; AOP_HL for _player_x
                           4896 ; AOP_STK for _update_joypad_sloc1_1_0
   0466 21 88 03           4897 	ld	hl,#_player_x + 0
   0469 7E                 4898 	ld	a,(hl)
   046A F8 04              4899 	lda	hl,4(sp)
   046C 77                 4900 	ld	(hl),a
                           4901 ; genIpush
                           4902 ; AOP_STK for _update_joypad_sloc3_1_0
   046D F8 00              4903 	lda	hl,0(sp)
   046F 7E                 4904 	ld	a,(hl)
   0470 F5                 4905 	push	af
   0471 33                 4906 	inc	sp
                           4907 ; genIpush
                           4908 ; AOP_STK for _update_joypad_sloc1_1_0
   0472 F8 05              4909 	lda	hl,5(sp)
   0474 7E                 4910 	ld	a,(hl)
   0475 F5                 4911 	push	af
   0476 33                 4912 	inc	sp
                           4913 ; genCall
   0477 CD 00 00           4914 	call	_playermove
   047A 43                 4915 	ld	b,e
   047B E8 02              4916 	lda	sp,2(sp)
                           4917 ; genIfx
                           4918 ; Removed redundent or a,a
   047D AF                 4919 	xor	a,a
   047E B0                 4920 	or	a,b
   047F CA AD 04           4921 	jp	z,00112$
                           4922 ;	main.c 149
                           4923 ; genAssign
                           4924 ; AOP_STK for _update_joypad_sloc1_1_0
                           4925 ; AOP_HL for _doggo_x
   0482 F8 04              4926 	lda	hl,4(sp)
   0484 7E                 4927 	ld	a,(hl)
   0485 21 9A 03           4928 	ld	hl,#_doggo_x + 0
   0488 77                 4929 	ld	(hl),a
                           4930 ;	main.c 150
                           4931 ; genCast
                           4932 ; AOP_HL for _player_y
                           4933 ; AOP_HL for _doggo_y
   0489 21 8A 03           4934 	ld	hl,#_player_y + 0
   048C 7E                 4935 	ld	a,(hl)
   048D 21 9B 03           4936 	ld	hl,#_doggo_y + 0
   0490 77                 4937 	ld	(hl),a
                           4938 ;	main.c 151
                           4939 ; genAssign
                           4940 ; AOP_STK for _update_joypad_sloc2_1_0
                           4941 ; AOP_HL for _player_y
   0491 F8 02              4942 	lda	hl,2(sp)
   0493 2A                 4943 	ld	a,(hl+)
   0494 5E                 4944 	ld	e,(hl)
   0495 21 8A 03           4945 	ld	hl,#_player_y + 0
   0498 22                 4946 	ld	(hl+),a
   0499 73                 4947 	ld	(hl),e
                           4948 ;	main.c 152
                           4949 ; genCast
                           4950 ; AOP_HL for _player_y
   049A 2B                 4951 	dec	hl
   049B 46                 4952 	ld	b,(hl)
                           4953 ; genIpush
   049C 78                 4954 	ld	a,b
   049D F5                 4955 	push	af
   049E 33                 4956 	inc	sp
                           4957 ; genIpush
                           4958 ; AOP_STK for _update_joypad_sloc1_1_0
   049F F8 05              4959 	lda	hl,5(sp)
   04A1 7E                 4960 	ld	a,(hl)
   04A2 F5                 4961 	push	af
   04A3 33                 4962 	inc	sp
                           4963 ; genIpush
   04A4 3E 00              4964 	ld	a,#0x00
   04A6 F5                 4965 	push	af
   04A7 33                 4966 	inc	sp
                           4967 ; genCall
   04A8 CD 00 00           4968 	call	_move_sprite
   04AB E8 03              4969 	lda	sp,3(sp)
                           4970 ; genLabel
   04AD                    4971 00112$:
                           4972 ;	main.c 154
                           4973 ; genMinus
                           4974 ; AOP_HL for _player_y
                           4975 ; AOP_STK for _update_joypad_sloc2_1_0
   04AD 21 8A 03           4976 	ld	hl,#_player_y + 0
   04B0 5E                 4977 	ld	e,(hl)
   04B1 23                 4978 	inc	hl
   04B2 56                 4979 	ld	d,(hl)
   04B3 21 08 00           4980 	ld	hl,#0x0008
   04B6 7B                 4981 	ld	a,e
   04B7 95                 4982 	sub	a,l
   04B8 5F                 4983 	ld	e,a
   04B9 7A                 4984 	ld	a,d
   04BA 9C                 4985 	sbc	a,h
   04BB F8 03              4986 	lda	hl,3(sp)
   04BD 77                 4987 	ld	(hl),a
   04BE 2B                 4988 	dec	hl
   04BF 73                 4989 	ld	(hl),e
                           4990 ; genCast
                           4991 ; AOP_STK for _update_joypad_sloc2_1_0
                           4992 ; AOP_STK for _update_joypad_sloc3_1_0
   04C0 7E                 4993 	ld	a,(hl)
   04C1 2B                 4994 	dec	hl
   04C2 2B                 4995 	dec	hl
   04C3 77                 4996 	ld	(hl),a
                           4997 ; genIpush
                           4998 ; AOP_STK for _update_joypad_sloc3_1_0
   04C4 7E                 4999 	ld	a,(hl)
   04C5 F5                 5000 	push	af
   04C6 33                 5001 	inc	sp
                           5002 ; genIpush
                           5003 ; AOP_STK for _update_joypad_sloc1_1_0
   04C7 F8 05              5004 	lda	hl,5(sp)
   04C9 7E                 5005 	ld	a,(hl)
   04CA F5                 5006 	push	af
   04CB 33                 5007 	inc	sp
                           5008 ; genCall
   04CC CD 00 00           5009 	call	_playermove
   04CF 4B                 5010 	ld	c,e
   04D0 E8 02              5011 	lda	sp,2(sp)
                           5012 ; genCmpEq
   04D2 79                 5013 	ld	a,c ; 2
   04D3 FE 02              5014 	cp	a,#0x02
   04D5 C2 DA 04           5015 	jp	nz,00138$
   04D8 18 03              5016 	jr	00139$
   04DA                    5017 00138$:
   04DA C3 11 05           5018 	jp	00116$
   04DD                    5019 00139$:
                           5020 ;	main.c 155
                           5021 ; genAssign
                           5022 ; AOP_STK for _update_joypad_sloc1_1_0
                           5023 ; AOP_HL for _doggo_x
   04DD F8 04              5024 	lda	hl,4(sp)
   04DF 7E                 5025 	ld	a,(hl)
   04E0 21 9A 03           5026 	ld	hl,#_doggo_x + 0
   04E3 77                 5027 	ld	(hl),a
                           5028 ;	main.c 156
                           5029 ; genCast
                           5030 ; AOP_HL for _player_y
                           5031 ; AOP_HL for _doggo_y
   04E4 21 8A 03           5032 	ld	hl,#_player_y + 0
   04E7 7E                 5033 	ld	a,(hl)
   04E8 21 9B 03           5034 	ld	hl,#_doggo_y + 0
   04EB 77                 5035 	ld	(hl),a
                           5036 ;	main.c 157
                           5037 ; genAssign
                           5038 ; AOP_STK for _update_joypad_sloc2_1_0
                           5039 ; AOP_HL for _player_y
   04EC F8 02              5040 	lda	hl,2(sp)
   04EE 2A                 5041 	ld	a,(hl+)
   04EF 5E                 5042 	ld	e,(hl)
   04F0 21 8A 03           5043 	ld	hl,#_player_y + 0
   04F3 22                 5044 	ld	(hl+),a
   04F4 73                 5045 	ld	(hl),e
                           5046 ;	main.c 158
                           5047 ; genCast
                           5048 ; AOP_HL for _player_y
   04F5 2B                 5049 	dec	hl
   04F6 4E                 5050 	ld	c,(hl)
                           5051 ; genIpush
   04F7 79                 5052 	ld	a,c
   04F8 F5                 5053 	push	af
   04F9 33                 5054 	inc	sp
                           5055 ; genIpush
                           5056 ; AOP_STK for _update_joypad_sloc1_1_0
   04FA F8 05              5057 	lda	hl,5(sp)
   04FC 7E                 5058 	ld	a,(hl)
   04FD F5                 5059 	push	af
   04FE 33                 5060 	inc	sp
                           5061 ; genIpush
   04FF 3E 00              5062 	ld	a,#0x00
   0501 F5                 5063 	push	af
   0502 33                 5064 	inc	sp
                           5065 ; genCall
   0503 CD 00 00           5066 	call	_move_sprite
   0506 E8 03              5067 	lda	sp,3(sp)
                           5068 ;	main.c 159
                           5069 ; genIpush
   0508 21 81 05           5070 	ld	hl,#__str_3 + 0
   050B E5                 5071 	push	hl
                           5072 ; genCall
   050C CD 00 00           5073 	call	_printf
   050F E8 02              5074 	lda	sp,2(sp)
                           5075 ; genLabel
   0511                    5076 00116$:
                           5077 ;	main.c 163
                           5078 ; genAnd
                           5079 ; AOP_HL for _joypad_state
   0511 21 85 03           5080 	ld	hl,#_joypad_state + 0
   0514 7E                 5081 	ld	a,(hl)
   0515 CB 5F              5082 	bit	3,a
   0517 CA 74 05           5083 	jp	z,00120$
                           5084 ;	main.c 164
                           5085 ; genAssign
                           5086 ; AOP_HL for _player_o
   051A 21 8E 03           5087 	ld	hl,#_player_o + 0
   051D 36 01              5088 	ld	(hl),#0x01
   051F 23                 5089 	inc	hl
   0520 36 00              5090 	ld	(hl),#0x00
                           5091 ;	main.c 165
                           5092 ; genPlus
                           5093 ; AOP_HL for _player_y
                           5094 ; AOP_STK for _update_joypad_sloc2_1_0
                           5095 ; genPlusIncr
                           5096 ;	genPlusIncr failed
   0522 21 8A 03           5097 	ld	hl,#_player_y + 0
   0525 5E                 5098 	ld	e,(hl)
   0526 23                 5099 	inc	hl
   0527 56                 5100 	ld	d,(hl)
   0528 21 08 00           5101 	ld	hl,#0x0008
   052B 19                 5102 	add	hl,de
   052C 7D                 5103 	ld	a,l
   052D 54                 5104 	ld	d,h
   052E F8 02              5105 	lda	hl,2(sp)
   0530 22                 5106 	ld	(hl+),a
   0531 72                 5107 	ld	(hl),d
                           5108 ; genCast
                           5109 ; AOP_STK for _update_joypad_sloc2_1_0
                           5110 ; AOP_STK for _update_joypad_sloc3_1_0
   0532 2B                 5111 	dec	hl
   0533 7E                 5112 	ld	a,(hl)
   0534 2B                 5113 	dec	hl
   0535 2B                 5114 	dec	hl
   0536 77                 5115 	ld	(hl),a
                           5116 ; genCast
                           5117 ; AOP_HL for _player_x
   0537 21 88 03           5118 	ld	hl,#_player_x + 0
   053A 4E                 5119 	ld	c,(hl)
                           5120 ; genIpush
                           5121 ; AOP_STK for _update_joypad_sloc3_1_0
   053B F8 00              5122 	lda	hl,0(sp)
   053D 7E                 5123 	ld	a,(hl)
   053E F5                 5124 	push	af
   053F 33                 5125 	inc	sp
                           5126 ; genIpush
   0540 79                 5127 	ld	a,c
   0541 F5                 5128 	push	af
   0542 33                 5129 	inc	sp
                           5130 ; genCall
   0543 CD 00 00           5131 	call	_playermove
   0546 43                 5132 	ld	b,e
   0547 E8 02              5133 	lda	sp,2(sp)
                           5134 ; genIfx
                           5135 ; Removed redundent or a,a
   0549 AF                 5136 	xor	a,a
   054A B0                 5137 	or	a,b
   054B CA 74 05           5138 	jp	z,00120$
                           5139 ;	main.c 166
                           5140 ; genAssign
                           5141 ; AOP_HL for _doggo_x
   054E 21 9A 03           5142 	ld	hl,#_doggo_x + 0
   0551 71                 5143 	ld	(hl),c
                           5144 ;	main.c 167
                           5145 ; genCast
                           5146 ; AOP_HL for _player_y
                           5147 ; AOP_HL for _doggo_y
   0552 21 8A 03           5148 	ld	hl,#_player_y + 0
   0555 7E                 5149 	ld	a,(hl)
   0556 21 9B 03           5150 	ld	hl,#_doggo_y + 0
   0559 77                 5151 	ld	(hl),a
                           5152 ;	main.c 168
                           5153 ; genAssign
                           5154 ; AOP_STK for _update_joypad_sloc2_1_0
                           5155 ; AOP_HL for _player_y
   055A F8 02              5156 	lda	hl,2(sp)
   055C 2A                 5157 	ld	a,(hl+)
   055D 5E                 5158 	ld	e,(hl)
   055E 21 8A 03           5159 	ld	hl,#_player_y + 0
   0561 22                 5160 	ld	(hl+),a
   0562 73                 5161 	ld	(hl),e
                           5162 ;	main.c 169
                           5163 ; genCast
                           5164 ; AOP_HL for _player_y
   0563 2B                 5165 	dec	hl
   0564 46                 5166 	ld	b,(hl)
                           5167 ; genIpush
   0565 78                 5168 	ld	a,b
   0566 F5                 5169 	push	af
   0567 33                 5170 	inc	sp
                           5171 ; genIpush
   0568 79                 5172 	ld	a,c
   0569 F5                 5173 	push	af
   056A 33                 5174 	inc	sp
                           5175 ; genIpush
   056B 3E 00              5176 	ld	a,#0x00
   056D F5                 5177 	push	af
   056E 33                 5178 	inc	sp
                           5179 ; genCall
   056F CD 00 00           5180 	call	_move_sprite
   0572 E8 03              5181 	lda	sp,3(sp)
                           5182 ; genLabel
   0574                    5183 00120$:
                           5184 ;	main.c 176
                           5185 ; genIpush
   0574 3E 06              5186 	ld	a,#0x06
   0576 F5                 5187 	push	af
   0577 33                 5188 	inc	sp
                           5189 ; genCall
   0578 CD 4D 02           5190 	call	_performantdelay
   057B E8 01              5191 	lda	sp,1(sp)
                           5192 ; genLabel
   057D                    5193 00123$:
                           5194 ; genEndFunction
   057D E8 06              5195 	lda	sp,6(sp)
   057F C1                 5196 	pop	bc
   0580 C9                 5197 	ret
   0581                    5198 ___update_joypad_end:
   0581                    5199 __str_3:
   0581 25 73 66 61 63 69  5200 	.ascii "%sfacilito"
        6C 69 74 6F
   058B 00                 5201 	.db 0x00
                           5202 ;	main.c 180
                           5203 ; genLabel
                           5204 ; genFunction
                           5205 ;	---------------------------------
                           5206 ; Function update_badguy
                           5207 ; ---------------------------------
   058C                    5208 ___update_badguy_start:
   058C                    5209 _update_badguy:
                           5210 	
                           5211 ;	main.c 202
                           5212 ; genLabel
   058C                    5213 00101$:
                           5214 ; genEndFunction
                           5215 	
   058C C9                 5216 	ret
   058D                    5217 ___update_badguy_end:
                           5218 ;	main.c 204
                           5219 ; genLabel
                           5220 ; genFunction
                           5221 ;	---------------------------------
                           5222 ; Function collision_detection
                           5223 ; ---------------------------------
   058D                    5224 ___collision_detection_start:
   058D                    5225 _collision_detection:
   058D C5                 5226 	push	bc
   058E E8 F5              5227 	lda	sp,-11(sp)
                           5228 ;	main.c 206
                           5229 ; genRightShift
                           5230 ; AOP_HL for _count
                           5231 ; AOP_STK for _collision_detection_sloc1_1_0
                           5232 ; shift right 	result 1, left 1
   0590 21 87 03           5233 	ld	hl,#_count + 0
   0593 7E                 5234 	ld	a,(hl)
   0594 CB 3F              5235 	srl	a
   0596 F8 09              5236 	lda	hl,9(sp)
   0598 77                 5237 	ld	(hl),a
                           5238 ; genIpush
   0599 3E 0E              5239 	ld	a,#0x0E
   059B F5                 5240 	push	af
   059C 33                 5241 	inc	sp
                           5242 ; genIpush
                           5243 ; AOP_STK for _collision_detection_sloc1_1_0
   059D 7E                 5244 	ld	a,(hl)
   059E F5                 5245 	push	af
   059F 33                 5246 	inc	sp
                           5247 ; genCall
   05A0 CD 00 00           5248 	call	__moduchar
                           5249 ; AOP_STK for _collision_detection_sloc0_1_0
   05A3 F8 0C              5250 	lda	hl,12(sp)
   05A5 73                 5251 	ld	(hl),e
   05A6 E8 02              5252 	lda	sp,2(sp)
                           5253 ; genAssign (pointer)
                           5254 ; AOP_STK for _collision_detection_sloc0_1_0
   05A8 11 94 03           5255 	ld	de,#_badguy_i + 0
   05AB 7E                 5256 	ld	a,(hl)
   05AC 12                 5257 	ld	(de),a
                           5258 ;	main.c 207
                           5259 ; genPlus
                           5260 ; AOP_STK for _collision_detection_sloc2_1_0
                           5261 ; genPlusIncr
                           5262 ;	genPlusIncr failed
   05AD 11 94 03           5263 	ld	de,#_badguy_i + 0
   05B0 21 01 00           5264 	ld	hl,#0x0001
   05B3 19                 5265 	add	hl,de
   05B4 7D                 5266 	ld	a,l
   05B5 54                 5267 	ld	d,h
   05B6 F8 07              5268 	lda	hl,7(sp)
   05B8 22                 5269 	ld	(hl+),a
   05B9 72                 5270 	ld	(hl),d
                           5271 ; genIpush
   05BA 3E 10              5272 	ld	a,#0x10
   05BC F5                 5273 	push	af
   05BD 33                 5274 	inc	sp
                           5275 ; genIpush
                           5276 ; AOP_STK for _collision_detection_sloc1_1_0
   05BE 23                 5277 	inc	hl
   05BF 7E                 5278 	ld	a,(hl)
   05C0 F5                 5279 	push	af
   05C1 33                 5280 	inc	sp
                           5281 ; genCall
   05C2 CD 00 00           5282 	call	__moduchar
                           5283 ; AOP_STK for _collision_detection_sloc3_1_0
   05C5 F8 08              5284 	lda	hl,8(sp)
   05C7 73                 5285 	ld	(hl),e
   05C8 E8 02              5286 	lda	sp,2(sp)
                           5287 ; genAssign (pointer)
                           5288 ; AOP_STK for _collision_detection_sloc2_1_0
                           5289 ; AOP_STK for _collision_detection_sloc3_1_0
   05CA 23                 5290 	inc	hl
   05CB 5E                 5291 	ld	e,(hl)
   05CC 23                 5292 	inc	hl
   05CD 56                 5293 	ld	d,(hl)
   05CE 2B                 5294 	dec	hl
   05CF 2B                 5295 	dec	hl
   05D0 7E                 5296 	ld	a,(hl)
   05D1 12                 5297 	ld	(de),a
                           5298 ;	main.c 208
                           5299 ; genPlus
                           5300 ; AOP_STK for _collision_detection_sloc2_1_0
                           5301 ; genPlusIncr
                           5302 ;	genPlusIncr failed
   05D2 11 94 03           5303 	ld	de,#_badguy_i + 0
   05D5 21 02 00           5304 	ld	hl,#0x0002
   05D8 19                 5305 	add	hl,de
   05D9 7D                 5306 	ld	a,l
   05DA 54                 5307 	ld	d,h
   05DB F8 07              5308 	lda	hl,7(sp)
   05DD 22                 5309 	ld	(hl+),a
   05DE 72                 5310 	ld	(hl),d
                           5311 ; genIpush
   05DF 3E 1C              5312 	ld	a,#0x1C
   05E1 F5                 5313 	push	af
   05E2 33                 5314 	inc	sp
                           5315 ; genIpush
                           5316 ; AOP_STK for _collision_detection_sloc1_1_0
   05E3 23                 5317 	inc	hl
   05E4 7E                 5318 	ld	a,(hl)
   05E5 F5                 5319 	push	af
   05E6 33                 5320 	inc	sp
                           5321 ; genCall
   05E7 CD 00 00           5322 	call	__moduchar
   05EA 4B                 5323 	ld	c,e
   05EB E8 02              5324 	lda	sp,2(sp)
                           5325 ; genAssign (pointer)
                           5326 ; AOP_STK for _collision_detection_sloc2_1_0
   05ED F8 07              5327 	lda	hl,7(sp)
   05EF 5E                 5328 	ld	e,(hl)
   05F0 23                 5329 	inc	hl
   05F1 56                 5330 	ld	d,(hl)
   05F2 79                 5331 	ld	a,c
   05F3 12                 5332 	ld	(de),a
                           5333 ;	main.c 209
                           5334 ; genPlus
                           5335 ; genPlusIncr
   05F4 11 97 03           5336 	ld	de,#_badguy_i + 0 + 3
                           5337 ; genAssign (pointer)
                           5338 ; AOP_STK for _collision_detection_sloc0_1_0
   05F7 23                 5339 	inc	hl
   05F8 23                 5340 	inc	hl
   05F9 7E                 5341 	ld	a,(hl)
   05FA 12                 5342 	ld	(de),a
                           5343 ;	main.c 210
                           5344 ; genPlus
                           5345 ; AOP_STK for _collision_detection_sloc2_1_0
                           5346 ; genPlusIncr
                           5347 ;	genPlusIncr failed
   05FB 11 94 03           5348 	ld	de,#_badguy_i + 0
   05FE 21 04 00           5349 	ld	hl,#0x0004
   0601 19                 5350 	add	hl,de
   0602 7D                 5351 	ld	a,l
   0603 54                 5352 	ld	d,h
   0604 F8 07              5353 	lda	hl,7(sp)
   0606 22                 5354 	ld	(hl+),a
   0607 72                 5355 	ld	(hl),d
                           5356 ; genIpush
   0608 3E 0C              5357 	ld	a,#0x0C
   060A F5                 5358 	push	af
   060B 33                 5359 	inc	sp
                           5360 ; genIpush
                           5361 ; AOP_STK for _collision_detection_sloc1_1_0
   060C 23                 5362 	inc	hl
   060D 7E                 5363 	ld	a,(hl)
   060E F5                 5364 	push	af
   060F 33                 5365 	inc	sp
                           5366 ; genCall
   0610 CD 00 00           5367 	call	__moduchar
   0613 4B                 5368 	ld	c,e
   0614 E8 02              5369 	lda	sp,2(sp)
                           5370 ; genAssign (pointer)
                           5371 ; AOP_STK for _collision_detection_sloc2_1_0
   0616 F8 07              5372 	lda	hl,7(sp)
   0618 5E                 5373 	ld	e,(hl)
   0619 23                 5374 	inc	hl
   061A 56                 5375 	ld	d,(hl)
   061B 79                 5376 	ld	a,c
   061C 12                 5377 	ld	(de),a
                           5378 ;	main.c 211
                           5379 ; genPlus
                           5380 ; genPlusIncr
   061D 11 99 03           5381 	ld	de,#_badguy_i + 0 + 5
                           5382 ; genAssign (pointer)
                           5383 ; AOP_STK for _collision_detection_sloc3_1_0
   0620 2B                 5384 	dec	hl
   0621 2B                 5385 	dec	hl
   0622 7E                 5386 	ld	a,(hl)
   0623 12                 5387 	ld	(de),a
                           5388 ;	main.c 213
                           5389 ; genCmpGt
                           5390 ; AOP_HL for _player_y
   0624 21 8A 03           5391 	ld	hl,#_player_y + 0
   0627 5E                 5392 	ld	e,(hl)
   0628 23                 5393 	inc	hl
   0629 56                 5394 	ld	d,(hl)
   062A 21 A0 FF           5395 	ld	hl,#0xFFA0
   062D 19                 5396 	add	hl,de
   062E D2 9A 06           5397 	jp	nc,00108$
                           5398 ;	main.c 214
                           5399 ; genCmpLt
                           5400 ; AOP_HL for _player_y
   0631 21 8A 03           5401 	ld	hl,#_player_y + 0
   0634 5E                 5402 	ld	e,(hl)
   0635 23                 5403 	inc	hl
   0636 56                 5404 	ld	d,(hl)
   0637 21 90 FF           5405 	ld	hl,#0xFF90
   063A 19                 5406 	add	hl,de
   063B DA 9A 06           5407 	jp	c,00108$
                           5408 ;	main.c 215
                           5409 ; genCmpGt
                           5410 ; AOP_HL for _player_x
   063E 21 88 03           5411 	ld	hl,#_player_x + 0
   0641 5E                 5412 	ld	e,(hl)
   0642 23                 5413 	inc	hl
   0643 56                 5414 	ld	d,(hl)
   0644 21 F8 FF           5415 	ld	hl,#0xFFF8
   0647 19                 5416 	add	hl,de
   0648 D2 9A 06           5417 	jp	nc,00108$
                           5418 ;	main.c 216
                           5419 ; genCmpLt
                           5420 ; AOP_HL for _player_x
   064B 21 88 03           5421 	ld	hl,#_player_x + 0
   064E 5E                 5422 	ld	e,(hl)
   064F 23                 5423 	inc	hl
   0650 56                 5424 	ld	d,(hl)
   0651 21 E8 FF           5425 	ld	hl,#0xFFE8
   0654 19                 5426 	add	hl,de
   0655 DA 9A 06           5427 	jp	c,00108$
                           5428 ;	main.c 217
                           5429 ; genPlus
                           5430 ; AOP_STK for _collision_detection_sloc2_1_0
                           5431 ; genPlusIncr
                           5432 ;	genPlusIncr failed
   0658 11 00 00           5433 	ld	de,#_map1 + 0
   065B 21 1C 00           5434 	ld	hl,#0x001C
   065E 19                 5435 	add	hl,de
   065F 7D                 5436 	ld	a,l
   0660 54                 5437 	ld	d,h
   0661 F8 07              5438 	lda	hl,7(sp)
   0663 22                 5439 	ld	(hl+),a
   0664 72                 5440 	ld	(hl),d
                           5441 ; genPointerGet
   0665 11 34 02           5442 	ld	de,#_blankmap + 0
   0668 1A                 5443 	ld	a,(de)
   0669 4F                 5444 	ld	c,a
                           5445 ; genAssign (pointer)
                           5446 ; AOP_STK for _collision_detection_sloc2_1_0
   066A 2B                 5447 	dec	hl
   066B 5E                 5448 	ld	e,(hl)
   066C 23                 5449 	inc	hl
   066D 56                 5450 	ld	d,(hl)
   066E 79                 5451 	ld	a,c
   066F 12                 5452 	ld	(de),a
                           5453 ;	main.c 218
                           5454 ; genIpush
   0670 21 00 00           5455 	ld	hl,#_map1 + 0
   0673 E5                 5456 	push	hl
                           5457 ; genIpush
   0674 3E 12              5458 	ld	a,#0x12
   0676 F5                 5459 	push	af
   0677 33                 5460 	inc	sp
                           5461 ; genIpush
   0678 3E 14              5462 	ld	a,#0x14
   067A F5                 5463 	push	af
   067B 33                 5464 	inc	sp
                           5465 ; genIpush
   067C 3E 00              5466 	ld	a,#0x00
   067E F5                 5467 	push	af
   067F 33                 5468 	inc	sp
                           5469 ; genIpush
   0680 3E 00              5470 	ld	a,#0x00
   0682 F5                 5471 	push	af
   0683 33                 5472 	inc	sp
                           5473 ; genCall
   0684 CD 00 00           5474 	call	_set_bkg_tiles
   0687 E8 06              5475 	lda	sp,6(sp)
                           5476 ;	main.c 219
                           5477 ; genIpush
   0689 3E 00              5478 	ld	a,#0x00
   068B F5                 5479 	push	af
   068C 33                 5480 	inc	sp
                           5481 ; genIpush
   068D 3E 00              5482 	ld	a,#0x00
   068F F5                 5483 	push	af
   0690 33                 5484 	inc	sp
                           5485 ; genIpush
   0691 3E 07              5486 	ld	a,#0x07
   0693 F5                 5487 	push	af
   0694 33                 5488 	inc	sp
                           5489 ; genCall
   0695 CD 00 00           5490 	call	_move_sprite
   0698 E8 03              5491 	lda	sp,3(sp)
                           5492 ; genLabel
   069A                    5493 00108$:
                           5494 ;	main.c 225
                           5495 ; genAssign
                           5496 ; AOP_HL for _q
   069A 21 9C 03           5497 	ld	hl,#_q + 0
   069D 36 00              5498 	ld	(hl),#0x00
                           5499 ; genLabel
   069F                    5500 00165$:
                           5501 ; genCmpLt
                           5502 ; AOP_HL for _q
   069F 21 9C 03           5503 	ld	hl,#_q + 0
   06A2 7E                 5504 	ld	a,(hl)
   06A3 FE 03              5505 	cp	#0x03
   06A5 D2 C1 08           5506 	jp	nc,00168$
                           5507 ;	main.c 227
                           5508 ; genIpush
   06A8 3E 78              5509 	ld	a,#0x78
   06AA F5                 5510 	push	af
   06AB 33                 5511 	inc	sp
                           5512 ; genIpush
                           5513 ; AOP_HL for _q
   06AC 7E                 5514 	ld	a,(hl)
   06AD F5                 5515 	push	af
   06AE 33                 5516 	inc	sp
                           5517 ; genCall
   06AF CD 00 00           5518 	call	__muluchar
   06B2 4B                 5519 	ld	c,e
   06B3 E8 02              5520 	lda	sp,2(sp)
                           5521 ; genPlus
                           5522 ; AOP_STK for _collision_detection_sloc4_1_0
                           5523 ;	genPlusIncr failed
   06B5 11 68 01           5524 	ld	de,#_badguy1_ai + 0
   06B8 69                 5525 	ld	l,c
   06B9 26 00              5526 	ld	h,#0x00
   06BB 19                 5527 	add	hl,de
   06BC 7D                 5528 	ld	a,l
   06BD 54                 5529 	ld	d,h
   06BE F8 04              5530 	lda	hl,4(sp)
   06C0 22                 5531 	ld	(hl+),a
   06C1 72                 5532 	ld	(hl),d
                           5533 ; genPlus
                           5534 ; AOP_STK for _collision_detection_sloc4_1_0
                           5535 ; AOP_STK for _collision_detection_sloc2_1_0
                           5536 ; genPlusIncr
                           5537 ;	genPlusIncr failed
   06C2 2B                 5538 	dec	hl
   06C3 5E                 5539 	ld	e,(hl)
   06C4 23                 5540 	inc	hl
   06C5 56                 5541 	ld	d,(hl)
   06C6 21 1E 00           5542 	ld	hl,#0x001E
   06C9 19                 5543 	add	hl,de
   06CA 7D                 5544 	ld	a,l
   06CB 54                 5545 	ld	d,h
   06CC F8 07              5546 	lda	hl,7(sp)
   06CE 22                 5547 	ld	(hl+),a
   06CF 72                 5548 	ld	(hl),d
                           5549 ; genAssign
                           5550 ; AOP_HL for _q
   06D0 21 9C 03           5551 	ld	hl,#_q + 0
   06D3 4E                 5552 	ld	c,(hl)
                           5553 ; genPlus
                           5554 ;	genPlusIncr failed
   06D4 3E 94              5555 	ld	a,#<_badguy_i
   06D6 81                 5556 	add	a,c
   06D7 5F                 5557 	ld	e,a
   06D8 3E 03              5558 	ld	a,#>_badguy_i
   06DA CE 00              5559 	adc	a,#0x00
   06DC 57                 5560 	ld	d,a
                           5561 ; genPointerGet
   06DD 1A                 5562 	ld	a,(de)
   06DE 4F                 5563 	ld	c,a
                           5564 ; genPlus
                           5565 ; AOP_STK for _collision_detection_sloc2_1_0
                           5566 ;	genPlusIncr failed
   06DF F8 07              5567 	lda	hl,7(sp)
   06E1 5E                 5568 	ld	e,(hl)
   06E2 23                 5569 	inc	hl
   06E3 56                 5570 	ld	d,(hl)
   06E4 69                 5571 	ld	l,c
   06E5 26 00              5572 	ld	h,#0x00
   06E7 19                 5573 	add	hl,de
   06E8 5D                 5574 	ld	e,l
   06E9 54                 5575 	ld	d,h
                           5576 ; genPointerGet
   06EA 1A                 5577 	ld	a,(de)
   06EB 4F                 5578 	ld	c,a
                           5579 ; genMinus
   06EC 79                 5580 	ld	a,c
   06ED C6 F8              5581 	add	a,#0xF8
   06EF 4F                 5582 	ld	c,a
                           5583 ; genCast
                           5584 ; Removed redundent load
   06F0 06 00              5585 	ld	b,#0x00
                           5586 ; genCmpGt
                           5587 ; AOP_HL for _player_y
   06F2 AF                 5588 	xor	a,a
   06F3 79                 5589 	ld	a,c
   06F4 21 8A 03           5590 	ld	hl,#_player_y + 0
   06F7 9E                 5591 	sbc	a,(hl) ; 2
   06F8 78                 5592 	ld	a,b
   06F9 23                 5593 	inc	hl
   06FA 9E                 5594 	sbc	a,(hl) ; 2
   06FB D2 8D 07           5595 	jp	nc,00116$
                           5596 ;	main.c 228
                           5597 ; genAssign
                           5598 ; AOP_HL for _q
   06FE 21 9C 03           5599 	ld	hl,#_q + 0
   0701 4E                 5600 	ld	c,(hl)
                           5601 ; genPlus
                           5602 ;	genPlusIncr failed
   0702 3E 94              5603 	ld	a,#<_badguy_i
   0704 81                 5604 	add	a,c
   0705 5F                 5605 	ld	e,a
   0706 3E 03              5606 	ld	a,#>_badguy_i
   0708 CE 00              5607 	adc	a,#0x00
   070A 57                 5608 	ld	d,a
                           5609 ; genPointerGet
   070B 1A                 5610 	ld	a,(de)
   070C 4F                 5611 	ld	c,a
                           5612 ; genPlus
                           5613 ; AOP_STK for _collision_detection_sloc2_1_0
                           5614 ;	genPlusIncr failed
   070D F8 07              5615 	lda	hl,7(sp)
   070F 5E                 5616 	ld	e,(hl)
   0710 23                 5617 	inc	hl
   0711 56                 5618 	ld	d,(hl)
   0712 69                 5619 	ld	l,c
   0713 26 00              5620 	ld	h,#0x00
   0715 19                 5621 	add	hl,de
   0716 5D                 5622 	ld	e,l
   0717 54                 5623 	ld	d,h
                           5624 ; genPointerGet
   0718 1A                 5625 	ld	a,(de)
   0719 4F                 5626 	ld	c,a
                           5627 ; genPlus
                           5628 ; genPlusIncr
                           5629 ;	genPlusIncr failed
   071A 79                 5630 	ld	a,c
   071B C6 08              5631 	add	a,#0x08
   071D 4F                 5632 	ld	c,a
                           5633 ; genCast
                           5634 ; Removed redundent load
   071E 06 00              5635 	ld	b,#0x00
                           5636 ; genCmpLt
                           5637 ; AOP_HL for _player_y
   0720 AF                 5638 	xor	a,a
   0721 21 8A 03           5639 	ld	hl,#_player_y + 0
   0724 7E                 5640 	ld	a,(hl)
   0725 99                 5641 	sbc	a,c ; 2
   0726 23                 5642 	inc	hl
   0727 7E                 5643 	ld	a,(hl)
   0728 98                 5644 	sbc	a,b ; 2
   0729 D2 8D 07           5645 	jp	nc,00116$
                           5646 ;	main.c 229
                           5647 ; genAssign
                           5648 ; AOP_HL for _q
   072C 21 9C 03           5649 	ld	hl,#_q + 0
   072F 4E                 5650 	ld	c,(hl)
                           5651 ; genPlus
                           5652 ;	genPlusIncr failed
   0730 3E 94              5653 	ld	a,#<_badguy_i
   0732 81                 5654 	add	a,c
   0733 5F                 5655 	ld	e,a
   0734 3E 03              5656 	ld	a,#>_badguy_i
   0736 CE 00              5657 	adc	a,#0x00
   0738 57                 5658 	ld	d,a
                           5659 ; genPointerGet
   0739 1A                 5660 	ld	a,(de)
   073A 4F                 5661 	ld	c,a
                           5662 ; genPlus
                           5663 ; AOP_STK for _collision_detection_sloc4_1_0
                           5664 ;	genPlusIncr failed
   073B F8 04              5665 	lda	hl,4(sp)
   073D 5E                 5666 	ld	e,(hl)
   073E 23                 5667 	inc	hl
   073F 56                 5668 	ld	d,(hl)
   0740 69                 5669 	ld	l,c
   0741 26 00              5670 	ld	h,#0x00
   0743 19                 5671 	add	hl,de
   0744 5D                 5672 	ld	e,l
   0745 54                 5673 	ld	d,h
                           5674 ; genPointerGet
   0746 1A                 5675 	ld	a,(de)
   0747 4F                 5676 	ld	c,a
                           5677 ; genMinus
   0748 79                 5678 	ld	a,c
   0749 C6 F8              5679 	add	a,#0xF8
   074B 4F                 5680 	ld	c,a
                           5681 ; genCast
                           5682 ; Removed redundent load
   074C 06 00              5683 	ld	b,#0x00
                           5684 ; genCmpGt
                           5685 ; AOP_HL for _player_x
   074E AF                 5686 	xor	a,a
   074F 79                 5687 	ld	a,c
   0750 21 88 03           5688 	ld	hl,#_player_x + 0
   0753 9E                 5689 	sbc	a,(hl) ; 2
   0754 78                 5690 	ld	a,b
   0755 23                 5691 	inc	hl
   0756 9E                 5692 	sbc	a,(hl) ; 2
   0757 D2 8D 07           5693 	jp	nc,00116$
                           5694 ;	main.c 230
                           5695 ; genAssign
                           5696 ; AOP_HL for _q
   075A 21 9C 03           5697 	ld	hl,#_q + 0
   075D 4E                 5698 	ld	c,(hl)
                           5699 ; genPlus
                           5700 ;	genPlusIncr failed
   075E 3E 94              5701 	ld	a,#<_badguy_i
   0760 81                 5702 	add	a,c
   0761 5F                 5703 	ld	e,a
   0762 3E 03              5704 	ld	a,#>_badguy_i
   0764 CE 00              5705 	adc	a,#0x00
   0766 57                 5706 	ld	d,a
                           5707 ; genPointerGet
   0767 1A                 5708 	ld	a,(de)
   0768 4F                 5709 	ld	c,a
                           5710 ; genPlus
                           5711 ; AOP_STK for _collision_detection_sloc4_1_0
                           5712 ;	genPlusIncr failed
   0769 F8 04              5713 	lda	hl,4(sp)
   076B 5E                 5714 	ld	e,(hl)
   076C 23                 5715 	inc	hl
   076D 56                 5716 	ld	d,(hl)
   076E 69                 5717 	ld	l,c
   076F 26 00              5718 	ld	h,#0x00
   0771 19                 5719 	add	hl,de
   0772 5D                 5720 	ld	e,l
   0773 54                 5721 	ld	d,h
                           5722 ; genPointerGet
   0774 1A                 5723 	ld	a,(de)
   0775 4F                 5724 	ld	c,a
                           5725 ; genPlus
                           5726 ; genPlusIncr
                           5727 ;	genPlusIncr failed
   0776 79                 5728 	ld	a,c
   0777 C6 08              5729 	add	a,#0x08
   0779 4F                 5730 	ld	c,a
                           5731 ; genCast
                           5732 ; Removed redundent load
   077A 06 00              5733 	ld	b,#0x00
                           5734 ; genCmpLt
                           5735 ; AOP_HL for _player_x
   077C AF                 5736 	xor	a,a
   077D 21 88 03           5737 	ld	hl,#_player_x + 0
   0780 7E                 5738 	ld	a,(hl)
   0781 99                 5739 	sbc	a,c ; 2
   0782 23                 5740 	inc	hl
   0783 7E                 5741 	ld	a,(hl)
   0784 98                 5742 	sbc	a,b ; 2
   0785 D2 8D 07           5743 	jp	nc,00116$
                           5744 ;	main.c 231
                           5745 ; genAssign
                           5746 ; AOP_HL for _playing
   0788 21 84 03           5747 	ld	hl,#_playing + 0
   078B 36 00              5748 	ld	(hl),#0x00
                           5749 ; genLabel
   078D                    5750 00116$:
                           5751 ;	main.c 238
                           5752 ; genIpush
   078D 3E 3C              5753 	ld	a,#0x3C
   078F F5                 5754 	push	af
   0790 33                 5755 	inc	sp
                           5756 ; genIpush
                           5757 ; AOP_HL for _q
   0791 21 9C 03           5758 	ld	hl,#_q + 0
   0794 7E                 5759 	ld	a,(hl)
   0795 F5                 5760 	push	af
   0796 33                 5761 	inc	sp
                           5762 ; genCall
   0797 CD 00 00           5763 	call	__muluchar
   079A 4B                 5764 	ld	c,e
   079B E8 02              5765 	lda	sp,2(sp)
                           5766 ; genPlus
                           5767 ; AOP_STK for _collision_detection_sloc6_1_0
                           5768 ;	genPlusIncr failed
   079D 11 D0 02           5769 	ld	de,#_badguy2_ai + 0
   07A0 69                 5770 	ld	l,c
   07A1 26 00              5771 	ld	h,#0x00
   07A3 19                 5772 	add	hl,de
   07A4 7D                 5773 	ld	a,l
   07A5 54                 5774 	ld	d,h
   07A6 F8 00              5775 	lda	hl,0(sp)
   07A8 22                 5776 	ld	(hl+),a
   07A9 72                 5777 	ld	(hl),d
                           5778 ; genPlus
                           5779 ; AOP_STK for _collision_detection_sloc6_1_0
                           5780 ; AOP_STK for _collision_detection_sloc5_1_0
                           5781 ; genPlusIncr
                           5782 ;	genPlusIncr failed
   07AA 2B                 5783 	dec	hl
   07AB 5E                 5784 	ld	e,(hl)
   07AC 23                 5785 	inc	hl
   07AD 56                 5786 	ld	d,(hl)
   07AE 21 1E 00           5787 	ld	hl,#0x001E
   07B1 19                 5788 	add	hl,de
   07B2 7D                 5789 	ld	a,l
   07B3 54                 5790 	ld	d,h
   07B4 F8 02              5791 	lda	hl,2(sp)
   07B6 22                 5792 	ld	(hl+),a
   07B7 72                 5793 	ld	(hl),d
                           5794 ; genPlus
                           5795 ; AOP_HL for _q
                           5796 ; genPlusIncr
                           5797 ;	genPlusIncr failed
   07B8 21 9C 03           5798 	ld	hl,#_q + 0
   07BB 7E                 5799 	ld	a,(hl)
   07BC C6 03              5800 	add	a,#0x03
   07BE 4F                 5801 	ld	c,a
                           5802 ; genPlus
                           5803 ;	genPlusIncr failed
   07BF 3E 94              5804 	ld	a,#<_badguy_i
   07C1 81                 5805 	add	a,c
   07C2 5F                 5806 	ld	e,a
   07C3 3E 03              5807 	ld	a,#>_badguy_i
   07C5 CE 00              5808 	adc	a,#0x00
   07C7 57                 5809 	ld	d,a
                           5810 ; genPointerGet
                           5811 ; AOP_STK for _collision_detection_sloc3_1_0
   07C8 1A                 5812 	ld	a,(de)
   07C9 F8 06              5813 	lda	hl,6(sp)
   07CB 77                 5814 	ld	(hl),a
                           5815 ; genPlus
                           5816 ; AOP_STK for _collision_detection_sloc5_1_0
                           5817 ; AOP_STK for _collision_detection_sloc3_1_0
                           5818 ;	genPlusIncr failed
   07CC F8 02              5819 	lda	hl,2(sp)
   07CE 5E                 5820 	ld	e,(hl)
   07CF 23                 5821 	inc	hl
   07D0 56                 5822 	ld	d,(hl)
   07D1 F8 06              5823 	lda	hl,6(sp)
   07D3 6E                 5824 	ld	l,(hl)
   07D4 26 00              5825 	ld	h,#0x00
   07D6 19                 5826 	add	hl,de
   07D7 5D                 5827 	ld	e,l
   07D8 54                 5828 	ld	d,h
                           5829 ; genPointerGet
                           5830 ; AOP_STK for _collision_detection_sloc5_1_0
   07D9 1A                 5831 	ld	a,(de)
   07DA F8 02              5832 	lda	hl,2(sp)
   07DC 77                 5833 	ld	(hl),a
                           5834 ; genMinus
                           5835 ; AOP_STK for _collision_detection_sloc5_1_0
   07DD 7E                 5836 	ld	a,(hl)
   07DE C6 F8              5837 	add	a,#0xF8
   07E0 4F                 5838 	ld	c,a
                           5839 ; genCast
                           5840 ; Removed redundent load
   07E1 06 00              5841 	ld	b,#0x00
                           5842 ; genCmpGt
                           5843 ; AOP_HL for _player_y
   07E3 AF                 5844 	xor	a,a
   07E4 79                 5845 	ld	a,c
   07E5 21 8A 03           5846 	ld	hl,#_player_y + 0
   07E8 9E                 5847 	sbc	a,(hl) ; 2
   07E9 78                 5848 	ld	a,b
   07EA 23                 5849 	inc	hl
   07EB 9E                 5850 	sbc	a,(hl) ; 2
   07EC D2 3F 08           5851 	jp	nc,00124$
                           5852 ;	main.c 239
                           5853 ; genPlus
                           5854 ; AOP_STK for _collision_detection_sloc5_1_0
                           5855 ; genPlusIncr
                           5856 ;	genPlusIncr failed
   07EF F8 02              5857 	lda	hl,2(sp)
   07F1 7E                 5858 	ld	a,(hl)
   07F2 C6 08              5859 	add	a,#0x08
   07F4 4F                 5860 	ld	c,a
                           5861 ; genCast
                           5862 ; Removed redundent load
   07F5 06 00              5863 	ld	b,#0x00
                           5864 ; genCmpLt
                           5865 ; AOP_HL for _player_y
   07F7 AF                 5866 	xor	a,a
   07F8 21 8A 03           5867 	ld	hl,#_player_y + 0
   07FB 7E                 5868 	ld	a,(hl)
   07FC 99                 5869 	sbc	a,c ; 2
   07FD 23                 5870 	inc	hl
   07FE 7E                 5871 	ld	a,(hl)
   07FF 98                 5872 	sbc	a,b ; 2
   0800 D2 3F 08           5873 	jp	nc,00124$
                           5874 ;	main.c 240
                           5875 ; genPlus
                           5876 ; AOP_STK for _collision_detection_sloc6_1_0
                           5877 ; AOP_STK for _collision_detection_sloc3_1_0
                           5878 ;	genPlusIncr failed
   0803 F8 00              5879 	lda	hl,0(sp)
   0805 5E                 5880 	ld	e,(hl)
   0806 23                 5881 	inc	hl
   0807 56                 5882 	ld	d,(hl)
   0808 F8 06              5883 	lda	hl,6(sp)
   080A 6E                 5884 	ld	l,(hl)
   080B 26 00              5885 	ld	h,#0x00
   080D 19                 5886 	add	hl,de
   080E 5D                 5887 	ld	e,l
   080F 54                 5888 	ld	d,h
                           5889 ; genPointerGet
                           5890 ; AOP_STK for _collision_detection_sloc1_1_0
   0810 1A                 5891 	ld	a,(de)
   0811 F8 09              5892 	lda	hl,9(sp)
   0813 77                 5893 	ld	(hl),a
                           5894 ; genMinus
                           5895 ; AOP_STK for _collision_detection_sloc1_1_0
   0814 7E                 5896 	ld	a,(hl)
   0815 C6 F8              5897 	add	a,#0xF8
   0817 47                 5898 	ld	b,a
                           5899 ; genCast
                           5900 ; Removed redundent load
   0818 0E 00              5901 	ld	c,#0x00
                           5902 ; genCmpGt
                           5903 ; AOP_HL for _player_x
   081A AF                 5904 	xor	a,a
   081B 78                 5905 	ld	a,b
   081C 21 88 03           5906 	ld	hl,#_player_x + 0
   081F 9E                 5907 	sbc	a,(hl) ; 2
   0820 79                 5908 	ld	a,c
   0821 23                 5909 	inc	hl
   0822 9E                 5910 	sbc	a,(hl) ; 2
   0823 D2 3F 08           5911 	jp	nc,00124$
                           5912 ;	main.c 241
                           5913 ; genPlus
                           5914 ; AOP_STK for _collision_detection_sloc1_1_0
                           5915 ; genPlusIncr
                           5916 ;	genPlusIncr failed
   0826 F8 09              5917 	lda	hl,9(sp)
   0828 7E                 5918 	ld	a,(hl)
   0829 C6 08              5919 	add	a,#0x08
   082B 4F                 5920 	ld	c,a
                           5921 ; genCast
                           5922 ; Removed redundent load
   082C 06 00              5923 	ld	b,#0x00
                           5924 ; genCmpLt
                           5925 ; AOP_HL for _player_x
   082E AF                 5926 	xor	a,a
   082F 21 88 03           5927 	ld	hl,#_player_x + 0
   0832 7E                 5928 	ld	a,(hl)
   0833 99                 5929 	sbc	a,c ; 2
   0834 23                 5930 	inc	hl
   0835 7E                 5931 	ld	a,(hl)
   0836 98                 5932 	sbc	a,b ; 2
   0837 D2 3F 08           5933 	jp	nc,00124$
                           5934 ;	main.c 242
                           5935 ; genAssign
                           5936 ; AOP_HL for _playing
   083A 21 84 03           5937 	ld	hl,#_playing + 0
   083D 36 00              5938 	ld	(hl),#0x00
                           5939 ; genLabel
   083F                    5940 00124$:
                           5941 ;	main.c 248
                           5942 ; genAssign
                           5943 ; AOP_HL for _q
   083F 21 9C 03           5944 	ld	hl,#_q + 0
   0842 4E                 5945 	ld	c,(hl)
                           5946 ; genPlus
                           5947 ;	genPlusIncr failed
   0843 3E 94              5948 	ld	a,#<_badguy_i
   0845 81                 5949 	add	a,c
   0846 5F                 5950 	ld	e,a
   0847 3E 03              5951 	ld	a,#>_badguy_i
   0849 CE 00              5952 	adc	a,#0x00
   084B 57                 5953 	ld	d,a
                           5954 ; genPointerGet
   084C 1A                 5955 	ld	a,(de)
   084D 4F                 5956 	ld	c,a
                           5957 ; genPlus
                           5958 ; AOP_STK for _collision_detection_sloc2_1_0
                           5959 ;	genPlusIncr failed
   084E F8 07              5960 	lda	hl,7(sp)
   0850 5E                 5961 	ld	e,(hl)
   0851 23                 5962 	inc	hl
   0852 56                 5963 	ld	d,(hl)
   0853 69                 5964 	ld	l,c
   0854 26 00              5965 	ld	h,#0x00
   0856 19                 5966 	add	hl,de
   0857 5D                 5967 	ld	e,l
   0858 54                 5968 	ld	d,h
                           5969 ; genPointerGet
   0859 1A                 5970 	ld	a,(de)
   085A 4F                 5971 	ld	c,a
                           5972 ; genAssign
                           5973 ; AOP_HL for _q
   085B 21 9C 03           5974 	ld	hl,#_q + 0
   085E 46                 5975 	ld	b,(hl)
                           5976 ; genPlus
                           5977 ;	genPlusIncr failed
   085F 3E 94              5978 	ld	a,#<_badguy_i
   0861 80                 5979 	add	a,b
   0862 5F                 5980 	ld	e,a
   0863 3E 03              5981 	ld	a,#>_badguy_i
   0865 CE 00              5982 	adc	a,#0x00
   0867 57                 5983 	ld	d,a
                           5984 ; genPointerGet
   0868 1A                 5985 	ld	a,(de)
   0869 47                 5986 	ld	b,a
                           5987 ; genPlus
                           5988 ; AOP_STK for _collision_detection_sloc4_1_0
                           5989 ;	genPlusIncr failed
   086A F8 04              5990 	lda	hl,4(sp)
   086C 5E                 5991 	ld	e,(hl)
   086D 23                 5992 	inc	hl
   086E 56                 5993 	ld	d,(hl)
   086F 68                 5994 	ld	l,b
   0870 26 00              5995 	ld	h,#0x00
   0872 19                 5996 	add	hl,de
   0873 5D                 5997 	ld	e,l
   0874 54                 5998 	ld	d,h
                           5999 ; genPointerGet
                           6000 ; AOP_STK for _collision_detection_sloc4_1_0
   0875 1A                 6001 	ld	a,(de)
   0876 F8 04              6002 	lda	hl,4(sp)
   0878 77                 6003 	ld	(hl),a
                           6004 ; genPlus
                           6005 ; AOP_HL for _q
                           6006 ; genPlusIncr
                           6007 ;	genPlusIncr failed
   0879 21 9C 03           6008 	ld	hl,#_q + 0
   087C 7E                 6009 	ld	a,(hl)
   087D C6 01              6010 	add	a,#0x01
   087F 47                 6011 	ld	b,a
                           6012 ; genIpush
   0880 79                 6013 	ld	a,c
   0881 F5                 6014 	push	af
   0882 33                 6015 	inc	sp
                           6016 ; genIpush
                           6017 ; AOP_STK for _collision_detection_sloc4_1_0
   0883 F8 05              6018 	lda	hl,5(sp)
   0885 7E                 6019 	ld	a,(hl)
   0886 F5                 6020 	push	af
   0887 33                 6021 	inc	sp
                           6022 ; genIpush
   0888 78                 6023 	ld	a,b
   0889 F5                 6024 	push	af
   088A 33                 6025 	inc	sp
                           6026 ; genCall
   088B CD 00 00           6027 	call	_move_sprite
   088E E8 03              6028 	lda	sp,3(sp)
                           6029 ;	main.c 251
                           6030 ; genPlus
                           6031 ; AOP_STK for _collision_detection_sloc6_1_0
                           6032 ; AOP_STK for _collision_detection_sloc3_1_0
                           6033 ;	genPlusIncr failed
   0890 F8 00              6034 	lda	hl,0(sp)
   0892 5E                 6035 	ld	e,(hl)
   0893 23                 6036 	inc	hl
   0894 56                 6037 	ld	d,(hl)
   0895 F8 06              6038 	lda	hl,6(sp)
   0897 6E                 6039 	ld	l,(hl)
   0898 26 00              6040 	ld	h,#0x00
   089A 19                 6041 	add	hl,de
   089B 5D                 6042 	ld	e,l
   089C 54                 6043 	ld	d,h
                           6044 ; genPointerGet
                           6045 ; AOP_STK for _collision_detection_sloc6_1_0
   089D 1A                 6046 	ld	a,(de)
   089E F8 00              6047 	lda	hl,0(sp)
   08A0 77                 6048 	ld	(hl),a
                           6049 ; genPlus
                           6050 ; AOP_HL for _q
                           6051 ; genPlusIncr
                           6052 ;	genPlusIncr failed
   08A1 21 9C 03           6053 	ld	hl,#_q + 0
   08A4 7E                 6054 	ld	a,(hl)
   08A5 C6 04              6055 	add	a,#0x04
   08A7 4F                 6056 	ld	c,a
                           6057 ; genIpush
                           6058 ; AOP_STK for _collision_detection_sloc5_1_0
   08A8 F8 02              6059 	lda	hl,2(sp)
   08AA 7E                 6060 	ld	a,(hl)
   08AB F5                 6061 	push	af
   08AC 33                 6062 	inc	sp
                           6063 ; genIpush
                           6064 ; AOP_STK for _collision_detection_sloc6_1_0
   08AD 2B                 6065 	dec	hl
   08AE 2B                 6066 	dec	hl
   08AF 7E                 6067 	ld	a,(hl)
   08B0 F5                 6068 	push	af
   08B1 33                 6069 	inc	sp
                           6070 ; genIpush
   08B2 79                 6071 	ld	a,c
   08B3 F5                 6072 	push	af
   08B4 33                 6073 	inc	sp
                           6074 ; genCall
   08B5 CD 00 00           6075 	call	_move_sprite
   08B8 E8 03              6076 	lda	sp,3(sp)
                           6077 ;	main.c 225
                           6078 ; genAssign
                           6079 ; AOP_HL for _q
   08BA 21 9C 03           6080 	ld	hl,#_q + 0
   08BD 70                 6081 	ld	(hl),b
                           6082 ; genGoto
   08BE C3 9F 06           6083 	jp	00165$
                           6084 ; genLabel
   08C1                    6085 00168$:
                           6086 ;	main.c 256
                           6087 ; genPlus
                           6088 ; AOP_HL for _count
                           6089 ; genPlusIncr
   08C1 21 87 03           6090 	ld	hl,#_count + 0
   08C4 34                 6091 	inc	(hl)
                           6092 ;	main.c 281
                           6093 ; genPlus
                           6094 ; AOP_STK for _collision_detection_sloc6_1_0
                           6095 ; genPlusIncr
                           6096 ;	genPlusIncr failed
   08C5 11 68 01           6097 	ld	de,#_badguy1_ai + 0
   08C8 21 5A 00           6098 	ld	hl,#0x005A
   08CB 19                 6099 	add	hl,de
   08CC 7D                 6100 	ld	a,l
   08CD 54                 6101 	ld	d,h
   08CE F8 00              6102 	lda	hl,0(sp)
   08D0 22                 6103 	ld	(hl+),a
   08D1 72                 6104 	ld	(hl),d
                           6105 ; genPointerGet
   08D2 11 94 03           6106 	ld	de,#_badguy_i + 0
   08D5 1A                 6107 	ld	a,(de)
   08D6 4F                 6108 	ld	c,a
                           6109 ; genPlus
                           6110 ; AOP_STK for _collision_detection_sloc6_1_0
                           6111 ;	genPlusIncr failed
   08D7 2B                 6112 	dec	hl
   08D8 5E                 6113 	ld	e,(hl)
   08D9 23                 6114 	inc	hl
   08DA 56                 6115 	ld	d,(hl)
   08DB 69                 6116 	ld	l,c
   08DC 26 00              6117 	ld	h,#0x00
   08DE 19                 6118 	add	hl,de
   08DF 5D                 6119 	ld	e,l
   08E0 54                 6120 	ld	d,h
                           6121 ; genPointerGet
                           6122 ; AOP_HL for _badguy_z
   08E1 1A                 6123 	ld	a,(de)
   08E2 21 92 03           6124 	ld	hl,#_badguy_z + 0
   08E5 77                 6125 	ld	(hl),a
                           6126 ;	main.c 283
                           6127 ; genCmpEq
                           6128 ; AOP_HL for _badguy_z
   08E6 7E                 6129 	ld	a,(hl)
   08E7 B7                 6130 	or	a,a
   08E8 C2 ED 08           6131 	jp	nz,00205$
   08EB 18 03              6132 	jr	00206$
   08ED                    6133 00205$:
   08ED C3 B4 09           6134 	jp	00134$
   08F0                    6135 00206$:
                           6136 ;	main.c 284
                           6137 ; genPlus
                           6138 ; AOP_STK for _collision_detection_sloc6_1_0
                           6139 ; genPlusIncr
                           6140 ;	genPlusIncr failed
   08F0 11 68 01           6141 	ld	de,#_badguy1_ai + 0
   08F3 21 1E 00           6142 	ld	hl,#0x001E
   08F6 19                 6143 	add	hl,de
   08F7 7D                 6144 	ld	a,l
   08F8 54                 6145 	ld	d,h
   08F9 F8 00              6146 	lda	hl,0(sp)
   08FB 22                 6147 	ld	(hl+),a
   08FC 72                 6148 	ld	(hl),d
                           6149 ; genPointerGet
   08FD 11 94 03           6150 	ld	de,#_badguy_i + 0
   0900 1A                 6151 	ld	a,(de)
   0901 4F                 6152 	ld	c,a
                           6153 ; genPlus
                           6154 ; AOP_STK for _collision_detection_sloc6_1_0
                           6155 ;	genPlusIncr failed
   0902 2B                 6156 	dec	hl
   0903 5E                 6157 	ld	e,(hl)
   0904 23                 6158 	inc	hl
   0905 56                 6159 	ld	d,(hl)
   0906 69                 6160 	ld	l,c
   0907 26 00              6161 	ld	h,#0x00
   0909 19                 6162 	add	hl,de
   090A 5D                 6163 	ld	e,l
   090B 54                 6164 	ld	d,h
                           6165 ; genPointerGet
   090C 1A                 6166 	ld	a,(de)
   090D 4F                 6167 	ld	c,a
                           6168 ; genMinus
   090E 79                 6169 	ld	a,c
   090F C6 F8              6170 	add	a,#0xF8
   0911 4F                 6171 	ld	c,a
                           6172 ; genCast
                           6173 ; Removed redundent load
   0912 06 00              6174 	ld	b,#0x00
                           6175 ; genCmpGt
                           6176 ; AOP_HL for _player_y
   0914 AF                 6177 	xor	a,a
   0915 79                 6178 	ld	a,c
   0916 21 8A 03           6179 	ld	hl,#_player_y + 0
   0919 9E                 6180 	sbc	a,(hl) ; 2
   091A 78                 6181 	ld	a,b
   091B 23                 6182 	inc	hl
   091C 9E                 6183 	sbc	a,(hl) ; 2
   091D D2 B4 09           6184 	jp	nc,00134$
                           6185 ;	main.c 285
                           6186 ; genPointerGet
   0920 11 94 03           6187 	ld	de,#_badguy_i + 0
   0923 1A                 6188 	ld	a,(de)
   0924 4F                 6189 	ld	c,a
                           6190 ; genPlus
                           6191 ; AOP_STK for _collision_detection_sloc6_1_0
                           6192 ;	genPlusIncr failed
   0925 F8 00              6193 	lda	hl,0(sp)
   0927 5E                 6194 	ld	e,(hl)
   0928 23                 6195 	inc	hl
   0929 56                 6196 	ld	d,(hl)
   092A 69                 6197 	ld	l,c
   092B 26 00              6198 	ld	h,#0x00
   092D 19                 6199 	add	hl,de
   092E 5D                 6200 	ld	e,l
   092F 54                 6201 	ld	d,h
                           6202 ; genPointerGet
   0930 1A                 6203 	ld	a,(de)
   0931 4F                 6204 	ld	c,a
                           6205 ; genPlus
                           6206 ; genPlusIncr
                           6207 ;	genPlusIncr failed
   0932 79                 6208 	ld	a,c
   0933 C6 08              6209 	add	a,#0x08
   0935 4F                 6210 	ld	c,a
                           6211 ; genCast
                           6212 ; Removed redundent load
   0936 06 00              6213 	ld	b,#0x00
                           6214 ; genCmpLt
                           6215 ; AOP_HL for _player_y
   0938 AF                 6216 	xor	a,a
   0939 21 8A 03           6217 	ld	hl,#_player_y + 0
   093C 7E                 6218 	ld	a,(hl)
   093D 99                 6219 	sbc	a,c ; 2
   093E 23                 6220 	inc	hl
   093F 7E                 6221 	ld	a,(hl)
   0940 98                 6222 	sbc	a,b ; 2
   0941 D2 B4 09           6223 	jp	nc,00134$
                           6224 ;	main.c 286
                           6225 ; genPointerGet
   0944 11 94 03           6226 	ld	de,#_badguy_i + 0
   0947 1A                 6227 	ld	a,(de)
   0948 4F                 6228 	ld	c,a
                           6229 ; genPlus
                           6230 ;	genPlusIncr failed
   0949 3E 68              6231 	ld	a,#<_badguy1_ai
   094B 81                 6232 	add	a,c
   094C 5F                 6233 	ld	e,a
   094D 3E 01              6234 	ld	a,#>_badguy1_ai
   094F CE 00              6235 	adc	a,#0x00
   0951 57                 6236 	ld	d,a
                           6237 ; genPointerGet
   0952 1A                 6238 	ld	a,(de)
   0953 4F                 6239 	ld	c,a
                           6240 ; genMinus
   0954 79                 6241 	ld	a,c
   0955 C6 F8              6242 	add	a,#0xF8
   0957 4F                 6243 	ld	c,a
                           6244 ; genCast
                           6245 ; Removed redundent load
   0958 06 00              6246 	ld	b,#0x00
                           6247 ; genCmpGt
                           6248 ; AOP_HL for _player_x
   095A AF                 6249 	xor	a,a
   095B 79                 6250 	ld	a,c
   095C 21 88 03           6251 	ld	hl,#_player_x + 0
   095F 9E                 6252 	sbc	a,(hl) ; 2
   0960 78                 6253 	ld	a,b
   0961 23                 6254 	inc	hl
   0962 9E                 6255 	sbc	a,(hl) ; 2
   0963 D2 B4 09           6256 	jp	nc,00134$
                           6257 ;	main.c 287
                           6258 ; genPointerGet
                           6259 ; AOP_STK for _collision_detection_sloc5_1_0
   0966 11 94 03           6260 	ld	de,#_badguy_i + 0
   0969 1A                 6261 	ld	a,(de)
   096A F8 02              6262 	lda	hl,2(sp)
   096C 77                 6263 	ld	(hl),a
                           6264 ; genPlus
                           6265 ; AOP_STK for _collision_detection_sloc5_1_0
                           6266 ; AOP_STK for _collision_detection_sloc6_1_0
                           6267 ;	genPlusIncr failed
   096D 11 68 01           6268 	ld	de,#_badguy1_ai + 0
   0970 6E                 6269 	ld	l,(hl)
   0971 26 00              6270 	ld	h,#0x00
   0973 19                 6271 	add	hl,de
   0974 7D                 6272 	ld	a,l
   0975 54                 6273 	ld	d,h
   0976 F8 00              6274 	lda	hl,0(sp)
   0978 22                 6275 	ld	(hl+),a
   0979 72                 6276 	ld	(hl),d
                           6277 ; genPlus
                           6278 ; genPlusIncr
                           6279 ;	genPlusIncr failed
   097A 3E 68              6280 	ld	a,#<_badguy1_ai
   097C C6 3C              6281 	add	a,#0x3C
   097E 47                 6282 	ld	b,a
   097F 3E 01              6283 	ld	a,#>_badguy1_ai
   0981 CE 00              6284 	adc	a,#0x00
   0983 4F                 6285 	ld	c,a
                           6286 ; genPlus
                           6287 ; AOP_STK for _collision_detection_sloc5_1_0
                           6288 ;	genPlusIncr failed
   0984 58                 6289 	ld	e,b
   0985 51                 6290 	ld	d,c
   0986 23                 6291 	inc	hl
   0987 6E                 6292 	ld	l,(hl)
   0988 26 00              6293 	ld	h,#0x00
   098A 19                 6294 	add	hl,de
   098B 5D                 6295 	ld	e,l
   098C 54                 6296 	ld	d,h
                           6297 ; genPointerGet
   098D 1A                 6298 	ld	a,(de)
   098E 4F                 6299 	ld	c,a
                           6300 ; genLeftShift
   098F 79                 6301 	ld	a,c
   0990 CB 17              6302 	rl	a
   0992 CB 17              6303 	rl	a
   0994 CB 17              6304 	rl	a
   0996 E6 F8              6305 	and	a,#0xF8
   0998 4F                 6306 	ld	c,a
                           6307 ; genPointerGet
                           6308 ; AOP_STK for _collision_detection_sloc6_1_0
   0999 F8 00              6309 	lda	hl,0(sp)
   099B 5E                 6310 	ld	e,(hl)
   099C 23                 6311 	inc	hl
   099D 56                 6312 	ld	d,(hl)
   099E 1A                 6313 	ld	a,(de)
                           6314 ; genPlus
                           6315 ;	genPlusIncr failed
   099F 81                 6316 	add	a,c
   09A0 4F                 6317 	ld	c,a
                           6318 ; genCast
                           6319 ; Removed redundent load
   09A1 06 00              6320 	ld	b,#0x00
                           6321 ; genCmpLt
                           6322 ; AOP_HL for _player_x
   09A3 AF                 6323 	xor	a,a
   09A4 21 88 03           6324 	ld	hl,#_player_x + 0
   09A7 7E                 6325 	ld	a,(hl)
   09A8 99                 6326 	sbc	a,c ; 2
   09A9 23                 6327 	inc	hl
   09AA 7E                 6328 	ld	a,(hl)
   09AB 98                 6329 	sbc	a,b ; 2
   09AC D2 B4 09           6330 	jp	nc,00134$
                           6331 ;	main.c 288
                           6332 ; genAssign
                           6333 ; AOP_HL for _playing
   09AF 21 84 03           6334 	ld	hl,#_playing + 0
   09B2 36 00              6335 	ld	(hl),#0x00
                           6336 ; genLabel
   09B4                    6337 00134$:
                           6338 ;	main.c 296
                           6339 ; genCmpEq
                           6340 ; AOP_HL for _badguy_z
   09B4 21 92 03           6341 	ld	hl,#_badguy_z + 0
   09B7 7E                 6342 	ld	a,(hl) ; 2
   09B8 FE 02              6343 	cp	a,#0x02
   09BA C2 BF 09           6344 	jp	nz,00207$
   09BD 18 03              6345 	jr	00208$
   09BF                    6346 00207$:
   09BF C3 86 0A           6347 	jp	00144$
   09C2                    6348 00208$:
                           6349 ;	main.c 297
                           6350 ; genPlus
                           6351 ; AOP_STK for _collision_detection_sloc6_1_0
                           6352 ; genPlusIncr
                           6353 ;	genPlusIncr failed
   09C2 11 68 01           6354 	ld	de,#_badguy1_ai + 0
   09C5 21 1E 00           6355 	ld	hl,#0x001E
   09C8 19                 6356 	add	hl,de
   09C9 7D                 6357 	ld	a,l
   09CA 54                 6358 	ld	d,h
   09CB F8 00              6359 	lda	hl,0(sp)
   09CD 22                 6360 	ld	(hl+),a
   09CE 72                 6361 	ld	(hl),d
                           6362 ; genPointerGet
   09CF 11 94 03           6363 	ld	de,#_badguy_i + 0
   09D2 1A                 6364 	ld	a,(de)
   09D3 4F                 6365 	ld	c,a
                           6366 ; genPlus
                           6367 ; AOP_STK for _collision_detection_sloc6_1_0
                           6368 ;	genPlusIncr failed
   09D4 2B                 6369 	dec	hl
   09D5 5E                 6370 	ld	e,(hl)
   09D6 23                 6371 	inc	hl
   09D7 56                 6372 	ld	d,(hl)
   09D8 69                 6373 	ld	l,c
   09D9 26 00              6374 	ld	h,#0x00
   09DB 19                 6375 	add	hl,de
   09DC 5D                 6376 	ld	e,l
   09DD 54                 6377 	ld	d,h
                           6378 ; genPointerGet
   09DE 1A                 6379 	ld	a,(de)
   09DF 4F                 6380 	ld	c,a
                           6381 ; genMinus
   09E0 79                 6382 	ld	a,c
   09E1 C6 F8              6383 	add	a,#0xF8
   09E3 4F                 6384 	ld	c,a
                           6385 ; genCast
                           6386 ; Removed redundent load
   09E4 06 00              6387 	ld	b,#0x00
                           6388 ; genCmpGt
                           6389 ; AOP_HL for _player_y
   09E6 AF                 6390 	xor	a,a
   09E7 79                 6391 	ld	a,c
   09E8 21 8A 03           6392 	ld	hl,#_player_y + 0
   09EB 9E                 6393 	sbc	a,(hl) ; 2
   09EC 78                 6394 	ld	a,b
   09ED 23                 6395 	inc	hl
   09EE 9E                 6396 	sbc	a,(hl) ; 2
   09EF D2 86 0A           6397 	jp	nc,00144$
                           6398 ;	main.c 298
                           6399 ; genPointerGet
   09F2 11 94 03           6400 	ld	de,#_badguy_i + 0
   09F5 1A                 6401 	ld	a,(de)
   09F6 4F                 6402 	ld	c,a
                           6403 ; genPlus
                           6404 ; AOP_STK for _collision_detection_sloc6_1_0
                           6405 ;	genPlusIncr failed
   09F7 F8 00              6406 	lda	hl,0(sp)
   09F9 5E                 6407 	ld	e,(hl)
   09FA 23                 6408 	inc	hl
   09FB 56                 6409 	ld	d,(hl)
   09FC 69                 6410 	ld	l,c
   09FD 26 00              6411 	ld	h,#0x00
   09FF 19                 6412 	add	hl,de
   0A00 5D                 6413 	ld	e,l
   0A01 54                 6414 	ld	d,h
                           6415 ; genPointerGet
   0A02 1A                 6416 	ld	a,(de)
   0A03 4F                 6417 	ld	c,a
                           6418 ; genPlus
                           6419 ; genPlusIncr
                           6420 ;	genPlusIncr failed
   0A04 79                 6421 	ld	a,c
   0A05 C6 08              6422 	add	a,#0x08
   0A07 4F                 6423 	ld	c,a
                           6424 ; genCast
                           6425 ; Removed redundent load
   0A08 06 00              6426 	ld	b,#0x00
                           6427 ; genCmpLt
                           6428 ; AOP_HL for _player_y
   0A0A AF                 6429 	xor	a,a
   0A0B 21 8A 03           6430 	ld	hl,#_player_y + 0
   0A0E 7E                 6431 	ld	a,(hl)
   0A0F 99                 6432 	sbc	a,c ; 2
   0A10 23                 6433 	inc	hl
   0A11 7E                 6434 	ld	a,(hl)
   0A12 98                 6435 	sbc	a,b ; 2
   0A13 D2 86 0A           6436 	jp	nc,00144$
                           6437 ;	main.c 299
                           6438 ; genPointerGet
                           6439 ; AOP_STK for _collision_detection_sloc5_1_0
   0A16 11 94 03           6440 	ld	de,#_badguy_i + 0
   0A19 1A                 6441 	ld	a,(de)
   0A1A F8 02              6442 	lda	hl,2(sp)
   0A1C 77                 6443 	ld	(hl),a
                           6444 ; genPlus
                           6445 ; AOP_STK for _collision_detection_sloc5_1_0
                           6446 ; AOP_STK for _collision_detection_sloc6_1_0
                           6447 ;	genPlusIncr failed
   0A1D 11 68 01           6448 	ld	de,#_badguy1_ai + 0
   0A20 6E                 6449 	ld	l,(hl)
   0A21 26 00              6450 	ld	h,#0x00
   0A23 19                 6451 	add	hl,de
   0A24 7D                 6452 	ld	a,l
   0A25 54                 6453 	ld	d,h
   0A26 F8 00              6454 	lda	hl,0(sp)
   0A28 22                 6455 	ld	(hl+),a
   0A29 72                 6456 	ld	(hl),d
                           6457 ; genPlus
                           6458 ; genPlusIncr
                           6459 ;	genPlusIncr failed
   0A2A 3E 68              6460 	ld	a,#<_badguy1_ai
   0A2C C6 3C              6461 	add	a,#0x3C
   0A2E 47                 6462 	ld	b,a
   0A2F 3E 01              6463 	ld	a,#>_badguy1_ai
   0A31 CE 00              6464 	adc	a,#0x00
   0A33 4F                 6465 	ld	c,a
                           6466 ; genPlus
                           6467 ; AOP_STK for _collision_detection_sloc5_1_0
                           6468 ;	genPlusIncr failed
   0A34 58                 6469 	ld	e,b
   0A35 51                 6470 	ld	d,c
   0A36 23                 6471 	inc	hl
   0A37 6E                 6472 	ld	l,(hl)
   0A38 26 00              6473 	ld	h,#0x00
   0A3A 19                 6474 	add	hl,de
   0A3B 5D                 6475 	ld	e,l
   0A3C 54                 6476 	ld	d,h
                           6477 ; genPointerGet
   0A3D 1A                 6478 	ld	a,(de)
   0A3E 4F                 6479 	ld	c,a
                           6480 ; genLeftShift
   0A3F 79                 6481 	ld	a,c
   0A40 CB 17              6482 	rl	a
   0A42 CB 17              6483 	rl	a
   0A44 CB 17              6484 	rl	a
   0A46 E6 F8              6485 	and	a,#0xF8
   0A48 4F                 6486 	ld	c,a
                           6487 ; genPointerGet
                           6488 ; AOP_STK for _collision_detection_sloc6_1_0
   0A49 F8 00              6489 	lda	hl,0(sp)
   0A4B 5E                 6490 	ld	e,(hl)
   0A4C 23                 6491 	inc	hl
   0A4D 56                 6492 	ld	d,(hl)
   0A4E 1A                 6493 	ld	a,(de)
   0A4F 47                 6494 	ld	b,a
                           6495 ; genMinus
   0A50 78                 6496 	ld	a,b
   0A51 91                 6497 	sub	a,c
   0A52 4F                 6498 	ld	c,a
                           6499 ; genCast
                           6500 ; Removed redundent load
   0A53 06 00              6501 	ld	b,#0x00
                           6502 ; genCmpGt
                           6503 ; AOP_HL for _player_x
   0A55 AF                 6504 	xor	a,a
   0A56 79                 6505 	ld	a,c
   0A57 21 88 03           6506 	ld	hl,#_player_x + 0
   0A5A 9E                 6507 	sbc	a,(hl) ; 2
   0A5B 78                 6508 	ld	a,b
   0A5C 23                 6509 	inc	hl
   0A5D 9E                 6510 	sbc	a,(hl) ; 2
   0A5E D2 86 0A           6511 	jp	nc,00144$
                           6512 ;	main.c 300
                           6513 ; genPointerGet
   0A61 11 94 03           6514 	ld	de,#_badguy_i + 0
   0A64 1A                 6515 	ld	a,(de)
   0A65 4F                 6516 	ld	c,a
                           6517 ; genPlus
                           6518 ;	genPlusIncr failed
   0A66 3E 68              6519 	ld	a,#<_badguy1_ai
   0A68 81                 6520 	add	a,c
   0A69 5F                 6521 	ld	e,a
   0A6A 3E 01              6522 	ld	a,#>_badguy1_ai
   0A6C CE 00              6523 	adc	a,#0x00
   0A6E 57                 6524 	ld	d,a
                           6525 ; genPointerGet
   0A6F 1A                 6526 	ld	a,(de)
   0A70 4F                 6527 	ld	c,a
                           6528 ; genPlus
                           6529 ; genPlusIncr
                           6530 ;	genPlusIncr failed
   0A71 79                 6531 	ld	a,c
   0A72 C6 08              6532 	add	a,#0x08
   0A74 4F                 6533 	ld	c,a
                           6534 ; genCast
                           6535 ; Removed redundent load
   0A75 06 00              6536 	ld	b,#0x00
                           6537 ; genCmpLt
                           6538 ; AOP_HL for _player_x
   0A77 AF                 6539 	xor	a,a
   0A78 2B                 6540 	dec	hl
   0A79 7E                 6541 	ld	a,(hl)
   0A7A 99                 6542 	sbc	a,c ; 2
   0A7B 23                 6543 	inc	hl
   0A7C 7E                 6544 	ld	a,(hl)
   0A7D 98                 6545 	sbc	a,b ; 2
   0A7E D2 86 0A           6546 	jp	nc,00144$
                           6547 ;	main.c 301
                           6548 ; genAssign
                           6549 ; AOP_HL for _playing
   0A81 21 84 03           6550 	ld	hl,#_playing + 0
   0A84 36 00              6551 	ld	(hl),#0x00
                           6552 ; genLabel
   0A86                    6553 00144$:
                           6554 ;	main.c 309
                           6555 ; genCmpEq
                           6556 ; AOP_HL for _badguy_z
   0A86 21 92 03           6557 	ld	hl,#_badguy_z + 0
   0A89 7E                 6558 	ld	a,(hl) ; 2
   0A8A FE 03              6559 	cp	a,#0x03
   0A8C C2 91 0A           6560 	jp	nz,00209$
   0A8F 18 03              6561 	jr	00210$
   0A91                    6562 00209$:
   0A91 C3 57 0B           6563 	jp	00154$
   0A94                    6564 00210$:
                           6565 ;	main.c 310
                           6566 ; genPlus
                           6567 ; AOP_STK for _collision_detection_sloc6_1_0
                           6568 ; genPlusIncr
                           6569 ;	genPlusIncr failed
   0A94 11 68 01           6570 	ld	de,#_badguy1_ai + 0
   0A97 21 1E 00           6571 	ld	hl,#0x001E
   0A9A 19                 6572 	add	hl,de
   0A9B 7D                 6573 	ld	a,l
   0A9C 54                 6574 	ld	d,h
   0A9D F8 00              6575 	lda	hl,0(sp)
   0A9F 22                 6576 	ld	(hl+),a
   0AA0 72                 6577 	ld	(hl),d
                           6578 ; genPointerGet
   0AA1 11 94 03           6579 	ld	de,#_badguy_i + 0
   0AA4 1A                 6580 	ld	a,(de)
   0AA5 4F                 6581 	ld	c,a
                           6582 ; genPlus
                           6583 ; AOP_STK for _collision_detection_sloc6_1_0
                           6584 ;	genPlusIncr failed
   0AA6 2B                 6585 	dec	hl
   0AA7 5E                 6586 	ld	e,(hl)
   0AA8 23                 6587 	inc	hl
   0AA9 56                 6588 	ld	d,(hl)
   0AAA 69                 6589 	ld	l,c
   0AAB 26 00              6590 	ld	h,#0x00
   0AAD 19                 6591 	add	hl,de
   0AAE 5D                 6592 	ld	e,l
   0AAF 54                 6593 	ld	d,h
                           6594 ; genPointerGet
   0AB0 1A                 6595 	ld	a,(de)
   0AB1 4F                 6596 	ld	c,a
                           6597 ; genMinus
   0AB2 79                 6598 	ld	a,c
   0AB3 C6 F8              6599 	add	a,#0xF8
   0AB5 4F                 6600 	ld	c,a
                           6601 ; genCast
                           6602 ; Removed redundent load
   0AB6 06 00              6603 	ld	b,#0x00
                           6604 ; genCmpGt
                           6605 ; AOP_HL for _player_y
   0AB8 AF                 6606 	xor	a,a
   0AB9 79                 6607 	ld	a,c
   0ABA 21 8A 03           6608 	ld	hl,#_player_y + 0
   0ABD 9E                 6609 	sbc	a,(hl) ; 2
   0ABE 78                 6610 	ld	a,b
   0ABF 23                 6611 	inc	hl
   0AC0 9E                 6612 	sbc	a,(hl) ; 2
   0AC1 D2 57 0B           6613 	jp	nc,00154$
                           6614 ;	main.c 311
                           6615 ; genPointerGet
                           6616 ; AOP_STK for _collision_detection_sloc5_1_0
   0AC4 11 94 03           6617 	ld	de,#_badguy_i + 0
   0AC7 1A                 6618 	ld	a,(de)
   0AC8 F8 02              6619 	lda	hl,2(sp)
   0ACA 77                 6620 	ld	(hl),a
                           6621 ; genPlus
                           6622 ; AOP_STK for _collision_detection_sloc6_1_0
                           6623 ; AOP_STK for _collision_detection_sloc5_1_0
                           6624 ;	genPlusIncr failed
   0ACB 2B                 6625 	dec	hl
   0ACC 2B                 6626 	dec	hl
   0ACD 5E                 6627 	ld	e,(hl)
   0ACE 23                 6628 	inc	hl
   0ACF 56                 6629 	ld	d,(hl)
   0AD0 23                 6630 	inc	hl
   0AD1 6E                 6631 	ld	l,(hl)
   0AD2 26 00              6632 	ld	h,#0x00
   0AD4 19                 6633 	add	hl,de
   0AD5 7D                 6634 	ld	a,l
   0AD6 54                 6635 	ld	d,h
   0AD7 F8 00              6636 	lda	hl,0(sp)
   0AD9 22                 6637 	ld	(hl+),a
   0ADA 72                 6638 	ld	(hl),d
                           6639 ; genPlus
                           6640 ; genPlusIncr
                           6641 ;	genPlusIncr failed
   0ADB 3E 68              6642 	ld	a,#<_badguy1_ai
   0ADD C6 3C              6643 	add	a,#0x3C
   0ADF 47                 6644 	ld	b,a
   0AE0 3E 01              6645 	ld	a,#>_badguy1_ai
   0AE2 CE 00              6646 	adc	a,#0x00
   0AE4 4F                 6647 	ld	c,a
                           6648 ; genPlus
                           6649 ; AOP_STK for _collision_detection_sloc5_1_0
                           6650 ;	genPlusIncr failed
   0AE5 58                 6651 	ld	e,b
   0AE6 51                 6652 	ld	d,c
   0AE7 23                 6653 	inc	hl
   0AE8 6E                 6654 	ld	l,(hl)
   0AE9 26 00              6655 	ld	h,#0x00
   0AEB 19                 6656 	add	hl,de
   0AEC 5D                 6657 	ld	e,l
   0AED 54                 6658 	ld	d,h
                           6659 ; genPointerGet
   0AEE 1A                 6660 	ld	a,(de)
   0AEF 4F                 6661 	ld	c,a
                           6662 ; genLeftShift
   0AF0 79                 6663 	ld	a,c
   0AF1 CB 17              6664 	rl	a
   0AF3 CB 17              6665 	rl	a
   0AF5 CB 17              6666 	rl	a
   0AF7 E6 F8              6667 	and	a,#0xF8
   0AF9 4F                 6668 	ld	c,a
                           6669 ; genPointerGet
                           6670 ; AOP_STK for _collision_detection_sloc6_1_0
   0AFA F8 00              6671 	lda	hl,0(sp)
   0AFC 5E                 6672 	ld	e,(hl)
   0AFD 23                 6673 	inc	hl
   0AFE 56                 6674 	ld	d,(hl)
   0AFF 1A                 6675 	ld	a,(de)
                           6676 ; genPlus
                           6677 ;	genPlusIncr failed
   0B00 81                 6678 	add	a,c
   0B01 4F                 6679 	ld	c,a
                           6680 ; genCast
                           6681 ; Removed redundent load
   0B02 06 00              6682 	ld	b,#0x00
                           6683 ; genCmpLt
                           6684 ; AOP_HL for _player_y
   0B04 AF                 6685 	xor	a,a
   0B05 21 8A 03           6686 	ld	hl,#_player_y + 0
   0B08 7E                 6687 	ld	a,(hl)
   0B09 99                 6688 	sbc	a,c ; 2
   0B0A 23                 6689 	inc	hl
   0B0B 7E                 6690 	ld	a,(hl)
   0B0C 98                 6691 	sbc	a,b ; 2
   0B0D D2 57 0B           6692 	jp	nc,00154$
                           6693 ;	main.c 312
                           6694 ; genPointerGet
   0B10 11 94 03           6695 	ld	de,#_badguy_i + 0
   0B13 1A                 6696 	ld	a,(de)
   0B14 4F                 6697 	ld	c,a
                           6698 ; genPlus
                           6699 ;	genPlusIncr failed
   0B15 3E 68              6700 	ld	a,#<_badguy1_ai
   0B17 81                 6701 	add	a,c
   0B18 5F                 6702 	ld	e,a
   0B19 3E 01              6703 	ld	a,#>_badguy1_ai
   0B1B CE 00              6704 	adc	a,#0x00
   0B1D 57                 6705 	ld	d,a
                           6706 ; genPointerGet
   0B1E 1A                 6707 	ld	a,(de)
   0B1F 4F                 6708 	ld	c,a
                           6709 ; genMinus
   0B20 79                 6710 	ld	a,c
   0B21 C6 F8              6711 	add	a,#0xF8
   0B23 4F                 6712 	ld	c,a
                           6713 ; genCast
                           6714 ; Removed redundent load
   0B24 06 00              6715 	ld	b,#0x00
                           6716 ; genCmpGt
                           6717 ; AOP_HL for _player_x
   0B26 AF                 6718 	xor	a,a
   0B27 79                 6719 	ld	a,c
   0B28 21 88 03           6720 	ld	hl,#_player_x + 0
   0B2B 9E                 6721 	sbc	a,(hl) ; 2
   0B2C 78                 6722 	ld	a,b
   0B2D 23                 6723 	inc	hl
   0B2E 9E                 6724 	sbc	a,(hl) ; 2
   0B2F D2 57 0B           6725 	jp	nc,00154$
                           6726 ;	main.c 313
                           6727 ; genPointerGet
   0B32 11 94 03           6728 	ld	de,#_badguy_i + 0
   0B35 1A                 6729 	ld	a,(de)
   0B36 4F                 6730 	ld	c,a
                           6731 ; genPlus
                           6732 ;	genPlusIncr failed
   0B37 3E 68              6733 	ld	a,#<_badguy1_ai
   0B39 81                 6734 	add	a,c
   0B3A 5F                 6735 	ld	e,a
   0B3B 3E 01              6736 	ld	a,#>_badguy1_ai
   0B3D CE 00              6737 	adc	a,#0x00
   0B3F 57                 6738 	ld	d,a
                           6739 ; genPointerGet
   0B40 1A                 6740 	ld	a,(de)
   0B41 4F                 6741 	ld	c,a
                           6742 ; genPlus
                           6743 ; genPlusIncr
                           6744 ;	genPlusIncr failed
   0B42 79                 6745 	ld	a,c
   0B43 C6 08              6746 	add	a,#0x08
   0B45 4F                 6747 	ld	c,a
                           6748 ; genCast
                           6749 ; Removed redundent load
   0B46 06 00              6750 	ld	b,#0x00
                           6751 ; genCmpLt
                           6752 ; AOP_HL for _player_x
   0B48 AF                 6753 	xor	a,a
   0B49 2B                 6754 	dec	hl
   0B4A 7E                 6755 	ld	a,(hl)
   0B4B 99                 6756 	sbc	a,c ; 2
   0B4C 23                 6757 	inc	hl
   0B4D 7E                 6758 	ld	a,(hl)
   0B4E 98                 6759 	sbc	a,b ; 2
   0B4F D2 57 0B           6760 	jp	nc,00154$
                           6761 ;	main.c 314
                           6762 ; genAssign
                           6763 ; AOP_HL for _playing
   0B52 21 84 03           6764 	ld	hl,#_playing + 0
   0B55 36 00              6765 	ld	(hl),#0x00
                           6766 ; genLabel
   0B57                    6767 00154$:
                           6768 ;	main.c 323
                           6769 ; genCmpEq
                           6770 ; AOP_HL for _badguy_z
   0B57 21 92 03           6771 	ld	hl,#_badguy_z + 0
   0B5A 7E                 6772 	ld	a,(hl) ; 2
   0B5B FE 01              6773 	cp	a,#0x01
   0B5D C2 62 0B           6774 	jp	nz,00211$
   0B60 18 03              6775 	jr	00212$
   0B62                    6776 00211$:
   0B62 C3 2C 0C           6777 	jp	00169$
   0B65                    6778 00212$:
                           6779 ;	main.c 324
                           6780 ; genPlus
                           6781 ; AOP_STK for _collision_detection_sloc6_1_0
                           6782 ; genPlusIncr
                           6783 ;	genPlusIncr failed
   0B65 11 68 01           6784 	ld	de,#_badguy1_ai + 0
   0B68 21 1E 00           6785 	ld	hl,#0x001E
   0B6B 19                 6786 	add	hl,de
   0B6C 7D                 6787 	ld	a,l
   0B6D 54                 6788 	ld	d,h
   0B6E F8 00              6789 	lda	hl,0(sp)
   0B70 22                 6790 	ld	(hl+),a
   0B71 72                 6791 	ld	(hl),d
                           6792 ; genPointerGet
                           6793 ; AOP_STK for _collision_detection_sloc4_1_0
   0B72 11 94 03           6794 	ld	de,#_badguy_i + 0
   0B75 1A                 6795 	ld	a,(de)
   0B76 F8 04              6796 	lda	hl,4(sp)
   0B78 77                 6797 	ld	(hl),a
                           6798 ; genPlus
                           6799 ; AOP_STK for _collision_detection_sloc6_1_0
                           6800 ; AOP_STK for _collision_detection_sloc4_1_0
                           6801 ; AOP_STK for _collision_detection_sloc5_1_0
                           6802 ;	genPlusIncr failed
   0B79 F8 00              6803 	lda	hl,0(sp)
   0B7B 5E                 6804 	ld	e,(hl)
   0B7C 23                 6805 	inc	hl
   0B7D 56                 6806 	ld	d,(hl)
   0B7E F8 04              6807 	lda	hl,4(sp)
   0B80 6E                 6808 	ld	l,(hl)
   0B81 26 00              6809 	ld	h,#0x00
   0B83 19                 6810 	add	hl,de
   0B84 7D                 6811 	ld	a,l
   0B85 54                 6812 	ld	d,h
   0B86 F8 02              6813 	lda	hl,2(sp)
   0B88 22                 6814 	ld	(hl+),a
   0B89 72                 6815 	ld	(hl),d
                           6816 ; genPlus
                           6817 ; genPlusIncr
                           6818 ;	genPlusIncr failed
   0B8A 3E 68              6819 	ld	a,#<_badguy1_ai
   0B8C C6 3C              6820 	add	a,#0x3C
   0B8E 47                 6821 	ld	b,a
   0B8F 3E 01              6822 	ld	a,#>_badguy1_ai
   0B91 CE 00              6823 	adc	a,#0x00
   0B93 4F                 6824 	ld	c,a
                           6825 ; genPlus
                           6826 ; AOP_STK for _collision_detection_sloc4_1_0
                           6827 ;	genPlusIncr failed
   0B94 58                 6828 	ld	e,b
   0B95 51                 6829 	ld	d,c
   0B96 23                 6830 	inc	hl
   0B97 6E                 6831 	ld	l,(hl)
   0B98 26 00              6832 	ld	h,#0x00
   0B9A 19                 6833 	add	hl,de
   0B9B 5D                 6834 	ld	e,l
   0B9C 54                 6835 	ld	d,h
                           6836 ; genPointerGet
   0B9D 1A                 6837 	ld	a,(de)
   0B9E 4F                 6838 	ld	c,a
                           6839 ; genLeftShift
   0B9F 79                 6840 	ld	a,c
   0BA0 CB 17              6841 	rl	a
   0BA2 CB 17              6842 	rl	a
   0BA4 CB 17              6843 	rl	a
   0BA6 E6 F8              6844 	and	a,#0xF8
   0BA8 4F                 6845 	ld	c,a
                           6846 ; genPointerGet
                           6847 ; AOP_STK for _collision_detection_sloc5_1_0
   0BA9 F8 02              6848 	lda	hl,2(sp)
   0BAB 5E                 6849 	ld	e,(hl)
   0BAC 23                 6850 	inc	hl
   0BAD 56                 6851 	ld	d,(hl)
   0BAE 1A                 6852 	ld	a,(de)
   0BAF 47                 6853 	ld	b,a
                           6854 ; genMinus
   0BB0 78                 6855 	ld	a,b
   0BB1 91                 6856 	sub	a,c
   0BB2 4F                 6857 	ld	c,a
                           6858 ; genCast
                           6859 ; Removed redundent load
   0BB3 06 00              6860 	ld	b,#0x00
                           6861 ; genCmpGt
                           6862 ; AOP_HL for _player_y
   0BB5 AF                 6863 	xor	a,a
   0BB6 79                 6864 	ld	a,c
   0BB7 21 8A 03           6865 	ld	hl,#_player_y + 0
   0BBA 9E                 6866 	sbc	a,(hl) ; 2
   0BBB 78                 6867 	ld	a,b
   0BBC 23                 6868 	inc	hl
   0BBD 9E                 6869 	sbc	a,(hl) ; 2
   0BBE D2 2C 0C           6870 	jp	nc,00169$
                           6871 ;	main.c 325
                           6872 ; genPointerGet
   0BC1 11 94 03           6873 	ld	de,#_badguy_i + 0
   0BC4 1A                 6874 	ld	a,(de)
   0BC5 4F                 6875 	ld	c,a
                           6876 ; genPlus
                           6877 ; AOP_STK for _collision_detection_sloc6_1_0
                           6878 ;	genPlusIncr failed
   0BC6 F8 00              6879 	lda	hl,0(sp)
   0BC8 5E                 6880 	ld	e,(hl)
   0BC9 23                 6881 	inc	hl
   0BCA 56                 6882 	ld	d,(hl)
   0BCB 69                 6883 	ld	l,c
   0BCC 26 00              6884 	ld	h,#0x00
   0BCE 19                 6885 	add	hl,de
   0BCF 5D                 6886 	ld	e,l
   0BD0 54                 6887 	ld	d,h
                           6888 ; genPointerGet
   0BD1 1A                 6889 	ld	a,(de)
   0BD2 4F                 6890 	ld	c,a
                           6891 ; genPlus
                           6892 ; genPlusIncr
                           6893 ;	genPlusIncr failed
   0BD3 79                 6894 	ld	a,c
   0BD4 C6 08              6895 	add	a,#0x08
   0BD6 4F                 6896 	ld	c,a
                           6897 ; genCast
                           6898 ; Removed redundent load
   0BD7 06 00              6899 	ld	b,#0x00
                           6900 ; genCmpLt
                           6901 ; AOP_HL for _player_y
   0BD9 AF                 6902 	xor	a,a
   0BDA 21 8A 03           6903 	ld	hl,#_player_y + 0
   0BDD 7E                 6904 	ld	a,(hl)
   0BDE 99                 6905 	sbc	a,c ; 2
   0BDF 23                 6906 	inc	hl
   0BE0 7E                 6907 	ld	a,(hl)
   0BE1 98                 6908 	sbc	a,b ; 2
   0BE2 D2 2C 0C           6909 	jp	nc,00169$
                           6910 ;	main.c 326
                           6911 ; genPointerGet
   0BE5 11 94 03           6912 	ld	de,#_badguy_i + 0
   0BE8 1A                 6913 	ld	a,(de)
   0BE9 4F                 6914 	ld	c,a
                           6915 ; genPlus
                           6916 ;	genPlusIncr failed
   0BEA 3E 68              6917 	ld	a,#<_badguy1_ai
   0BEC 81                 6918 	add	a,c
   0BED 5F                 6919 	ld	e,a
   0BEE 3E 01              6920 	ld	a,#>_badguy1_ai
   0BF0 CE 00              6921 	adc	a,#0x00
   0BF2 57                 6922 	ld	d,a
                           6923 ; genPointerGet
   0BF3 1A                 6924 	ld	a,(de)
   0BF4 4F                 6925 	ld	c,a
                           6926 ; genMinus
   0BF5 79                 6927 	ld	a,c
   0BF6 C6 F8              6928 	add	a,#0xF8
   0BF8 4F                 6929 	ld	c,a
                           6930 ; genCast
                           6931 ; Removed redundent load
   0BF9 06 00              6932 	ld	b,#0x00
                           6933 ; genCmpGt
                           6934 ; AOP_HL for _player_x
   0BFB AF                 6935 	xor	a,a
   0BFC 79                 6936 	ld	a,c
   0BFD 21 88 03           6937 	ld	hl,#_player_x + 0
   0C00 9E                 6938 	sbc	a,(hl) ; 2
   0C01 78                 6939 	ld	a,b
   0C02 23                 6940 	inc	hl
   0C03 9E                 6941 	sbc	a,(hl) ; 2
   0C04 D2 2C 0C           6942 	jp	nc,00169$
                           6943 ;	main.c 327
                           6944 ; genPointerGet
   0C07 11 94 03           6945 	ld	de,#_badguy_i + 0
   0C0A 1A                 6946 	ld	a,(de)
   0C0B 4F                 6947 	ld	c,a
                           6948 ; genPlus
                           6949 ;	genPlusIncr failed
   0C0C 3E 68              6950 	ld	a,#<_badguy1_ai
   0C0E 81                 6951 	add	a,c
   0C0F 5F                 6952 	ld	e,a
   0C10 3E 01              6953 	ld	a,#>_badguy1_ai
   0C12 CE 00              6954 	adc	a,#0x00
   0C14 57                 6955 	ld	d,a
                           6956 ; genPointerGet
   0C15 1A                 6957 	ld	a,(de)
   0C16 4F                 6958 	ld	c,a
                           6959 ; genPlus
                           6960 ; genPlusIncr
                           6961 ;	genPlusIncr failed
   0C17 79                 6962 	ld	a,c
   0C18 C6 08              6963 	add	a,#0x08
   0C1A 4F                 6964 	ld	c,a
                           6965 ; genCast
                           6966 ; Removed redundent load
   0C1B 06 00              6967 	ld	b,#0x00
                           6968 ; genCmpLt
                           6969 ; AOP_HL for _player_x
   0C1D AF                 6970 	xor	a,a
   0C1E 2B                 6971 	dec	hl
   0C1F 7E                 6972 	ld	a,(hl)
   0C20 99                 6973 	sbc	a,c ; 2
   0C21 23                 6974 	inc	hl
   0C22 7E                 6975 	ld	a,(hl)
   0C23 98                 6976 	sbc	a,b ; 2
   0C24 D2 2C 0C           6977 	jp	nc,00169$
                           6978 ;	main.c 328
                           6979 ; genAssign
                           6980 ; AOP_HL for _playing
   0C27 21 84 03           6981 	ld	hl,#_playing + 0
   0C2A 36 00              6982 	ld	(hl),#0x00
                           6983 ; genLabel
   0C2C                    6984 00169$:
                           6985 ; genEndFunction
   0C2C E8 0B              6986 	lda	sp,11(sp)
   0C2E C1                 6987 	pop	bc
   0C2F C9                 6988 	ret
   0C30                    6989 ___collision_detection_end:
                           6990 ;	main.c 337
                           6991 ; genLabel
                           6992 ; genFunction
                           6993 ;	---------------------------------
                           6994 ; Function do_gameplay
                           6995 ; ---------------------------------
   0C30                    6996 ___do_gameplay_start:
   0C30                    6997 _do_gameplay:
                           6998 	
                           6999 ;	main.c 339
                           7000 ; genAssign
                           7001 ; AOP_HL for _playing
   0C30 21 84 03           7002 	ld	hl,#_playing + 0
   0C33 36 01              7003 	ld	(hl),#0x01
                           7004 ;	main.c 341
                           7005 ; genAssign
                           7006 ; AOP_HL for _player_x
   0C35 21 88 03           7007 	ld	hl,#_player_x + 0
   0C38 36 20              7008 	ld	(hl),#0x20
   0C3A 23                 7009 	inc	hl
   0C3B 36 00              7010 	ld	(hl),#0x00
                           7011 ;	main.c 342
                           7012 ; genAssign
                           7013 ; AOP_HL for _player_y
   0C3D 21 8A 03           7014 	ld	hl,#_player_y + 0
   0C40 36 90              7015 	ld	(hl),#0x90
   0C42 23                 7016 	inc	hl
   0C43 36 00              7017 	ld	(hl),#0x00
                           7018 ;	main.c 343
                           7019 ; genAssign
                           7020 ; AOP_HL for _player_z
   0C45 21 8C 03           7021 	ld	hl,#_player_z + 0
   0C48 36 00              7022 	ld	(hl),#0x00
   0C4A 23                 7023 	inc	hl
   0C4B 36 00              7024 	ld	(hl),#0x00
                           7025 ;	main.c 344
                           7026 ; genAssign
                           7027 ; AOP_HL for _player_o
   0C4D 21 8E 03           7028 	ld	hl,#_player_o + 0
   0C50 36 00              7029 	ld	(hl),#0x00
   0C52 23                 7030 	inc	hl
   0C53 36 00              7031 	ld	(hl),#0x00
                           7032 ;	main.c 350
                           7033 ; genLabel
   0C55                    7034 00101$:
                           7035 ; genCmpEq
                           7036 ; AOP_HL for _playing
   0C55 21 84 03           7037 	ld	hl,#_playing + 0
   0C58 7E                 7038 	ld	a,(hl) ; 2
   0C59 FE 01              7039 	cp	a,#0x01
   0C5B C2 60 0C           7040 	jp	nz,00108$
   0C5E 18 03              7041 	jr	00109$
   0C60                    7042 00108$:
   0C60 C3 6F 0C           7043 	jp	00103$
   0C63                    7044 00109$:
                           7045 ;	main.c 352
                           7046 ; genCall
   0C63 CD 38 03           7047 	call	_update_joypad
                           7048 ;	main.c 353
                           7049 ; genCall
   0C66 CD 8C 05           7050 	call	_update_badguy
                           7051 ;	main.c 354
                           7052 ; genCall
   0C69 CD 8D 05           7053 	call	_collision_detection
                           7054 ; genGoto
   0C6C C3 55 0C           7055 	jp	00101$
                           7056 ; genLabel
   0C6F                    7057 00103$:
                           7058 ;	main.c 359
                           7059 ; genIpush
   0C6F 21 E8 03           7060 	ld	hl,#0x03E8
   0C72 E5                 7061 	push	hl
                           7062 ; genCall
   0C73 CD 00 00           7063 	call	_delay
   0C76 E8 02              7064 	lda	sp,2(sp)
                           7065 ;	main.c 360
                           7066 ; genCall
   0C78 CD 00 00           7067 	call	_reset
                           7068 ; genLabel
   0C7B                    7069 00104$:
                           7070 ; genEndFunction
                           7071 	
   0C7B C9                 7072 	ret
   0C7C                    7073 ___do_gameplay_end:
                           7074 ;	main.c 363
                           7075 ; genLabel
                           7076 ; genFunction
                           7077 ;	---------------------------------
                           7078 ; Function load_game_tiles
                           7079 ; ---------------------------------
   0C7C                    7080 ___load_game_tiles_start:
   0C7C                    7081 _load_game_tiles:
   0C7C C5                 7082 	push	bc
   0C7D E8 FE              7083 	lda	sp,-2(sp)
                           7084 ;	main.c 364
                           7085 ; genCall
   0C7F CD 00 00           7086 	call	_wait_vbl_done
                           7087 ;	main.c 366
                           7088 ; genCall
   0C82 CD 00 00           7089 	call	_display_off
                           7090 ;	main.c 370
                           7091 ; genIpush
   0C85 21 34 01           7092 	ld	hl,#_bubbles + 0
   0C88 E5                 7093 	push	hl
                           7094 ; genIpush
   0C89 3E 0E              7095 	ld	a,#0x0E
   0C8B F5                 7096 	push	af
   0C8C 33                 7097 	inc	sp
                           7098 ; genIpush
   0C8D 3E 00              7099 	ld	a,#0x00
   0C8F F5                 7100 	push	af
   0C90 33                 7101 	inc	sp
                           7102 ; genCall
   0C91 CD 00 00           7103 	call	_set_bkg_data
   0C94 E8 04              7104 	lda	sp,4(sp)
                           7105 ;	main.c 371
                           7106 ; genIpush
   0C96 21 00 00           7107 	ld	hl,#_map1 + 0
   0C99 E5                 7108 	push	hl
                           7109 ; genIpush
   0C9A 3E 12              7110 	ld	a,#0x12
   0C9C F5                 7111 	push	af
   0C9D 33                 7112 	inc	sp
                           7113 ; genIpush
   0C9E 3E 14              7114 	ld	a,#0x14
   0CA0 F5                 7115 	push	af
   0CA1 33                 7116 	inc	sp
                           7117 ; genIpush
   0CA2 3E 00              7118 	ld	a,#0x00
   0CA4 F5                 7119 	push	af
   0CA5 33                 7120 	inc	sp
                           7121 ; genIpush
   0CA6 3E 00              7122 	ld	a,#0x00
   0CA8 F5                 7123 	push	af
   0CA9 33                 7124 	inc	sp
                           7125 ; genCall
   0CAA CD 00 00           7126 	call	_set_bkg_tiles
   0CAD E8 06              7127 	lda	sp,6(sp)
                           7128 ;	main.c 372
                           7129 ; genIpush
   0CAF 21 D4 00           7130 	ld	hl,#_boy1 + 0
   0CB2 E5                 7131 	push	hl
                           7132 ; genIpush
   0CB3 3E 01              7133 	ld	a,#0x01
   0CB5 F5                 7134 	push	af
   0CB6 33                 7135 	inc	sp
                           7136 ; genIpush
   0CB7 3E 00              7137 	ld	a,#0x00
   0CB9 F5                 7138 	push	af
   0CBA 33                 7139 	inc	sp
                           7140 ; genCall
   0CBB CD 00 00           7141 	call	_set_sprite_data
   0CBE E8 04              7142 	lda	sp,4(sp)
                           7143 ;	main.c 373
                           7144 ; genIpush
   0CC0 21 14 01           7145 	ld	hl,#_doggo + 0
   0CC3 E5                 7146 	push	hl
                           7147 ; genIpush
   0CC4 3E 01              7148 	ld	a,#0x01
   0CC6 F5                 7149 	push	af
   0CC7 33                 7150 	inc	sp
                           7151 ; genIpush
   0CC8 3E 01              7152 	ld	a,#0x01
   0CCA F5                 7153 	push	af
   0CCB 33                 7154 	inc	sp
                           7155 ; genCall
   0CCC CD 00 00           7156 	call	_set_sprite_data
   0CCF E8 04              7157 	lda	sp,4(sp)
                           7158 ;	main.c 374
                           7159 ; genIpush
   0CD1 21 C4 00           7160 	ld	hl,#_Ghost + 0
   0CD4 E5                 7161 	push	hl
                           7162 ; genIpush
   0CD5 3E 01              7163 	ld	a,#0x01
   0CD7 F5                 7164 	push	af
   0CD8 33                 7165 	inc	sp
                           7166 ; genIpush
   0CD9 3E 02              7167 	ld	a,#0x02
   0CDB F5                 7168 	push	af
   0CDC 33                 7169 	inc	sp
                           7170 ; genCall
   0CDD CD 00 00           7171 	call	_set_sprite_data
   0CE0 E8 04              7172 	lda	sp,4(sp)
                           7173 ;	main.c 375
                           7174 ; genIpush
   0CE2 21 24 01           7175 	ld	hl,#_key + 0
   0CE5 E5                 7176 	push	hl
                           7177 ; genIpush
   0CE6 3E 01              7178 	ld	a,#0x01
   0CE8 F5                 7179 	push	af
   0CE9 33                 7180 	inc	sp
                           7181 ; genIpush
   0CEA 3E 03              7182 	ld	a,#0x03
   0CEC F5                 7183 	push	af
   0CED 33                 7184 	inc	sp
                           7185 ; genCall
   0CEE CD 00 00           7186 	call	_set_sprite_data
   0CF1 E8 04              7187 	lda	sp,4(sp)
                           7188 ;	main.c 377
                           7189 ; genIpush
   0CF3 3E 00              7190 	ld	a,#0x00
   0CF5 F5                 7191 	push	af
   0CF6 33                 7192 	inc	sp
                           7193 ; genIpush
   0CF7 3E 00              7194 	ld	a,#0x00
   0CF9 F5                 7195 	push	af
   0CFA 33                 7196 	inc	sp
                           7197 ; genCall
   0CFB CD 00 00           7198 	call	_set_sprite_tile
   0CFE E8 02              7199 	lda	sp,2(sp)
                           7200 ;	main.c 378
                           7201 ; genIpush
   0D00 3E 01              7202 	ld	a,#0x01
   0D02 F5                 7203 	push	af
   0D03 33                 7204 	inc	sp
                           7205 ; genIpush
   0D04 3E 01              7206 	ld	a,#0x01
   0D06 F5                 7207 	push	af
   0D07 33                 7208 	inc	sp
                           7209 ; genCall
   0D08 CD 00 00           7210 	call	_set_sprite_tile
   0D0B E8 02              7211 	lda	sp,2(sp)
                           7212 ;	main.c 379
                           7213 ; genIpush
   0D0D 3E 02              7214 	ld	a,#0x02
   0D0F F5                 7215 	push	af
   0D10 33                 7216 	inc	sp
                           7217 ; genIpush
   0D11 3E 02              7218 	ld	a,#0x02
   0D13 F5                 7219 	push	af
   0D14 33                 7220 	inc	sp
                           7221 ; genCall
   0D15 CD 00 00           7222 	call	_set_sprite_tile
   0D18 E8 02              7223 	lda	sp,2(sp)
                           7224 ;	main.c 380
                           7225 ; genIpush
   0D1A 3E 02              7226 	ld	a,#0x02
   0D1C F5                 7227 	push	af
   0D1D 33                 7228 	inc	sp
                           7229 ; genIpush
   0D1E 3E 03              7230 	ld	a,#0x03
   0D20 F5                 7231 	push	af
   0D21 33                 7232 	inc	sp
                           7233 ; genCall
   0D22 CD 00 00           7234 	call	_set_sprite_tile
   0D25 E8 02              7235 	lda	sp,2(sp)
                           7236 ;	main.c 381
                           7237 ; genIpush
   0D27 3E 02              7238 	ld	a,#0x02
   0D29 F5                 7239 	push	af
   0D2A 33                 7240 	inc	sp
                           7241 ; genIpush
   0D2B 3E 04              7242 	ld	a,#0x04
   0D2D F5                 7243 	push	af
   0D2E 33                 7244 	inc	sp
                           7245 ; genCall
   0D2F CD 00 00           7246 	call	_set_sprite_tile
   0D32 E8 02              7247 	lda	sp,2(sp)
                           7248 ;	main.c 382
                           7249 ; genIpush
   0D34 3E 02              7250 	ld	a,#0x02
   0D36 F5                 7251 	push	af
   0D37 33                 7252 	inc	sp
                           7253 ; genIpush
   0D38 3E 05              7254 	ld	a,#0x05
   0D3A F5                 7255 	push	af
   0D3B 33                 7256 	inc	sp
                           7257 ; genCall
   0D3C CD 00 00           7258 	call	_set_sprite_tile
   0D3F E8 02              7259 	lda	sp,2(sp)
                           7260 ;	main.c 383
                           7261 ; genIpush
   0D41 3E 02              7262 	ld	a,#0x02
   0D43 F5                 7263 	push	af
   0D44 33                 7264 	inc	sp
                           7265 ; genIpush
   0D45 3E 06              7266 	ld	a,#0x06
   0D47 F5                 7267 	push	af
   0D48 33                 7268 	inc	sp
                           7269 ; genCall
   0D49 CD 00 00           7270 	call	_set_sprite_tile
   0D4C E8 02              7271 	lda	sp,2(sp)
                           7272 ;	main.c 384
                           7273 ; genIpush
   0D4E 3E 03              7274 	ld	a,#0x03
   0D50 F5                 7275 	push	af
   0D51 33                 7276 	inc	sp
                           7277 ; genIpush
   0D52 3E 07              7278 	ld	a,#0x07
   0D54 F5                 7279 	push	af
   0D55 33                 7280 	inc	sp
                           7281 ; genCall
   0D56 CD 00 00           7282 	call	_set_sprite_tile
   0D59 E8 02              7283 	lda	sp,2(sp)
                           7284 ;	main.c 385
                           7285 ; genIpush
   0D5B 3E 68              7286 	ld	a,#0x68
   0D5D F5                 7287 	push	af
   0D5E 33                 7288 	inc	sp
                           7289 ; genIpush
   0D5F 3E 10              7290 	ld	a,#0x10
   0D61 F5                 7291 	push	af
   0D62 33                 7292 	inc	sp
                           7293 ; genIpush
   0D63 3E 07              7294 	ld	a,#0x07
   0D65 F5                 7295 	push	af
   0D66 33                 7296 	inc	sp
                           7297 ; genCall
   0D67 CD 00 00           7298 	call	_move_sprite
   0D6A E8 03              7299 	lda	sp,3(sp)
                           7300 ;	main.c 388
                           7301 ; genAssign
                           7302 ; AOP_STK for _load_game_tiles_sloc0_1_0
   0D6C F8 00              7303 	lda	hl,0(sp)
   0D6E 36 40              7304 	ld	(hl),#0x40
   0D70 23                 7305 	inc	hl
   0D71 36 FF              7306 	ld	(hl),#0xFF
                           7307 ; genAssign
   0D73 11 40 FF           7308 	ld	de,#0xFF40
                           7309 ; genPointerGet
   0D76 1A                 7310 	ld	a,(de)
   0D77 4F                 7311 	ld	c,a
                           7312 ; genOr
                           7313 ; Type res[2] = l[2]&r[1]
                           7314 ; Size res[1] = l[1]&r[1]
   0D78 79                 7315 	ld	a,c
   0D79 F6 02              7316 	or	a,#0x02
   0D7B 4F                 7317 	ld	c,a
                           7318 ; genAssign (pointer)
                           7319 ; AOP_STK for _load_game_tiles_sloc0_1_0
   0D7C 2B                 7320 	dec	hl
   0D7D 5E                 7321 	ld	e,(hl)
   0D7E 23                 7322 	inc	hl
   0D7F 56                 7323 	ld	d,(hl)
   0D80 79                 7324 	ld	a,c
   0D81 12                 7325 	ld	(de),a
                           7326 ;	main.c 389
                           7327 ; genAssign
                           7328 ; AOP_STK for _load_game_tiles_sloc0_1_0
   0D82 2B                 7329 	dec	hl
   0D83 36 40              7330 	ld	(hl),#0x40
   0D85 23                 7331 	inc	hl
   0D86 36 FF              7332 	ld	(hl),#0xFF
                           7333 ; genAssign
   0D88 11 40 FF           7334 	ld	de,#0xFF40
                           7335 ; genPointerGet
   0D8B 1A                 7336 	ld	a,(de)
   0D8C 4F                 7337 	ld	c,a
                           7338 ; genOr
                           7339 ; Type res[2] = l[2]&r[1]
                           7340 ; Size res[1] = l[1]&r[1]
   0D8D 79                 7341 	ld	a,c
   0D8E F6 01              7342 	or	a,#0x01
   0D90 4F                 7343 	ld	c,a
                           7344 ; genAssign (pointer)
                           7345 ; AOP_STK for _load_game_tiles_sloc0_1_0
   0D91 2B                 7346 	dec	hl
   0D92 5E                 7347 	ld	e,(hl)
   0D93 23                 7348 	inc	hl
   0D94 56                 7349 	ld	d,(hl)
   0D95 79                 7350 	ld	a,c
   0D96 12                 7351 	ld	(de),a
                           7352 ;	main.c 390
                           7353 ; genAssign
                           7354 ; AOP_STK for _load_game_tiles_sloc0_1_0
   0D97 2B                 7355 	dec	hl
   0D98 36 40              7356 	ld	(hl),#0x40
   0D9A 23                 7357 	inc	hl
   0D9B 36 FF              7358 	ld	(hl),#0xFF
                           7359 ; genAssign
   0D9D 11 40 FF           7360 	ld	de,#0xFF40
                           7361 ; genPointerGet
   0DA0 1A                 7362 	ld	a,(de)
   0DA1 4F                 7363 	ld	c,a
                           7364 ; genOr
                           7365 ; Type res[2] = l[2]&r[1]
                           7366 ; Size res[1] = l[1]&r[1]
   0DA2 79                 7367 	ld	a,c
   0DA3 F6 80              7368 	or	a,#0x80
   0DA5 4F                 7369 	ld	c,a
                           7370 ; genAssign (pointer)
                           7371 ; AOP_STK for _load_game_tiles_sloc0_1_0
   0DA6 2B                 7372 	dec	hl
   0DA7 5E                 7373 	ld	e,(hl)
   0DA8 23                 7374 	inc	hl
   0DA9 56                 7375 	ld	d,(hl)
   0DAA 79                 7376 	ld	a,c
   0DAB 12                 7377 	ld	(de),a
                           7378 ; genLabel
   0DAC                    7379 00101$:
                           7380 ; genEndFunction
   0DAC E8 02              7381 	lda	sp,2(sp)
   0DAE C1                 7382 	pop	bc
   0DAF C9                 7383 	ret
   0DB0                    7384 ___load_game_tiles_end:
                           7385 	.area _CODE
ASxxxx Assembler V01.75  (GameBoy Z80-like CPU), page 1.

Symbol Table

  0 _Ghost                             00C4 GR
  0 ___collision_detection_end         0C30 R
  0 ___collision_detection_start       058D R
  0 ___do_gameplay_end                 0C7C R
  0 ___do_gameplay_start               0C30 R
  0 ___load_game_tiles_end             0DB0 R
  0 ___load_game_tiles_start           0C7C R
  0 ___main_end                        0273 R
  0 ___main_start                      0261 R
  0 ___performantdelay_end             0261 R
  0 ___performantdelay_start           024D R
  0 ___playermove_end                  00C4 R
  0 ___playermove_start                0000 R
  0 ___update_badguy_end               058D R
  0 ___update_badguy_start             058C R
  0 ___update_graphics_end             0338 R
  0 ___update_graphics_start           031E R
  0 ___update_joypad_end               0581 R
  0 ___update_joypad_start             0338 R
  0 ___vblint_end                      031E R
  0 ___vblint_start                    0273 R
    __cpu                              **** GX
    __io_in                            **** GX
    __io_out                           **** GX
    __io_status                        **** GX
    __moduchar                         **** GX
    __muluchar                         **** GX
    __muluint                          **** GX
  0 __str_0                            0237 R
  0 __str_1                            023C R
  0 __str_2                            0243 R
  0 __str_3                            0581 R
    _add_VBL                           **** GX
  1 _badguy1_ai                        0168 GR
  1 _badguy2_ai                        02D0 GR
  1 _badguy_b                          0393 GR
  1 _badguy_i                          0394 GR
  1 _badguy_x                          0390 GR
  1 _badguy_y                          0391 GR
  1 _badguy_z                          0392 GR
  0 _blankmap                          0234 GR
  0 _boy1                              00D4 GR
  0 _boy2                              00E4 GR
  0 _boy3                              00F4 GR
  0 _boy4                              0104 GR
  0 _bubbles                           0134 GR
  0 _collision_detection               058D GR
  1 _count                             0387 GR
  1 _debug                             0386 GR
    _delay                             **** GX
    _display_off                       **** GX
  0 _do_gameplay                       0C30 GR
  0 _doggo                             0114 GR
  1 _doggo_x                           039A GR
  1 _doggo_y                           039B GR
    _joypad                            **** GX
  1 _joypad_state                      0385 GR
  0 _key                               0124 GR
  0 _load_game_tiles                   0C7C GR
  0 _main                              0261 GR
  1 _map1                              0000 GR
    _move_sprite                       **** GX
  0 _performantdelay                   024D GR
  1 _player_o                          038E GR
  1 _player_x                          0388 GR
  1 _player_y                          038A GR
  1 _player_z                          038C GR
  0 _playermove                        0000 GR
  1 _playing                           0384 GR
    _printf                            **** GX
  1 _q                                 039C GR
    _reset                             **** GX
  1 _seed                              039D GR
    _set_bkg_data                      **** GX
    _set_bkg_tiles                     **** GX
    _set_sprite_data                   **** GX
    _set_sprite_tile                   **** GX
    _sys_time                          **** GX
  0 _update_badguy                     058C GR
  0 _update_graphics                   031E GR
  0 _update_joypad                     0338 GR
  0 _vblint                            0273 GR
    _wait_vbl_done                     **** GX

ASxxxx Assembler V01.75  (GameBoy Z80-like CPU), page 2.

Area Table

   0 _CODE                              size  DB0   flags 0
   1 _DATA                              size  39F   flags 0
   2 _OVERLAY                           size    0   flags 0
   3 _ISEG                              size    0   flags 0
   4 _BSEG                              size    0   flags 0
   5 _XSEG                              size    0   flags 0
   6 _GSINIT                            size  DDC   flags 0
   7 _GSFINAL                           size    0   flags 0
   8 _HOME                              size    0   flags 0
